(dp0
((I6
tp1
(I18
tp2
tp3
I1
s((I107
tp4
(I122
tp5
tp6
I1
s((I107
tp7
(I108
tp8
tp9
I2
s((I5
tp10
(I6
tp11
tp12
I2
s((I5
tp13
(I15
tp14
tp15
I2
s((I5
tp16
(I13
tp17
tp18
I2
s((I5
tp19
(I12
tp20
tp21
I2
s((I5
tp22
(I10
tp23
tp24
I2
s((I5
tp25
(I8
tp26
tp27
I2
s((I5
tp28
(I21
tp29
tp30
I2
s((I5
tp31
(I19
tp32
tp33
I2
s((I5
tp34
(I18
tp35
tp36
I2
s((I5
tp37
(I17
tp38
tp39
I2
s((I5
tp40
(I16
tp41
tp42
I1
s((I14
tp43
(I15
tp44
tp45
I1
s((I14
tp46
(I20
tp47
tp48
I1
s((I14
tp49
(I21
tp50
tp51
I1
s((I14
tp52
(I19
tp53
tp54
I1
s((I14
tp55
(I16
tp56
tp57
I1
s((I14
tp58
(I17
tp59
tp60
I1
s((I120
tp61
(I122
tp62
tp63
I2
s((I120
tp64
(I123
tp65
tp66
I2
s((I115
tp67
(I125
tp68
tp69
I1
s((I115
tp70
(I124
tp71
tp72
I1
s((I115
tp73
(I121
tp74
tp75
I1
s((I115
tp76
(I120
tp77
tp78
I1
s((I115
tp79
(I123
tp80
tp81
I1
s((I115
tp82
(I122
tp83
tp84
I1
s((I115
tp85
(I117
tp86
tp87
I0
s((I115
tp88
(I116
tp89
tp90
I0
s((I115
tp91
(I118
tp92
tp93
I0
s((I116
tp94
(I117
tp95
tp96
I0
s((I1
tp97
(I11
tp98
tp99
I2
s((I1
tp100
(I10
tp101
tp102
I2
s((I1
tp103
(I9
tp104
tp105
I2
s((I1
tp106
(I8
tp107
tp108
I2
s((I1
tp109
(I15
tp110
tp111
I2
s((I1
tp112
(I14
tp113
tp114
I2
s((I1
tp115
(I12
tp116
tp117
I2
s((I1
tp118
(I3
tp119
tp120
I0
s((I1
tp121
(I2
tp122
tp123
I0
s((I1
tp124
(I7
tp125
tp126
I2
s((I1
tp127
(I6
tp128
tp129
I2
s((I1
tp130
(I5
tp131
tp132
I1
s((I1
tp133
(I4
tp134
tp135
I1
s((I1
tp136
(I19
tp137
tp138
I2
s((I1
tp139
(I18
tp140
tp141
I2
s((I1
tp142
(I17
tp143
tp144
I2
s((I1
tp145
(I16
tp146
tp147
I2
s((I1
tp148
(I21
tp149
tp150
I2
s((I1
tp151
(I20
tp152
tp153
I2
s((I10
tp154
(I11
tp155
tp156
I2
s((I116
tp157
(I118
tp158
tp159
I0
s((I116
tp160
(I119
tp161
tp162
I1
s((I10
tp163
(I14
tp164
tp165
I2
s((I10
tp166
(I15
tp167
tp168
I2
s((I10
tp169
(I12
tp170
tp171
I2
s((I116
tp172
(I124
tp173
tp174
I1
s((I116
tp175
(I125
tp176
tp177
I1
s((I116
tp178
(I121
tp179
tp180
I1
s((I116
tp181
(I122
tp182
tp183
I1
s((I10
tp184
(I19
tp185
tp186
I2
s((I10
tp187
(I16
tp188
tp189
I1
s((I10
tp190
(I20
tp191
tp192
I2
s((I10
tp193
(I21
tp194
tp195
I1
s((I19
tp196
(I21
tp197
tp198
I1
s((I19
tp199
(I20
tp200
tp201
I2
s((I111
tp202
(I112
tp203
tp204
I1
s((I111
tp205
(I115
tp206
tp207
I2
s((I111
tp208
(I114
tp209
tp210
I2
s((I111
tp211
(I117
tp212
tp213
I2
s((I111
tp214
(I116
tp215
tp216
I2
s((I111
tp217
(I119
tp218
tp219
I2
s((I111
tp220
(I118
tp221
tp222
I2
s((I111
tp223
(I122
tp224
tp225
I1
s((I111
tp226
(I125
tp227
tp228
I2
s((I102
tp229
(I124
tp230
tp231
I2
s((I102
tp232
(I123
tp233
tp234
I2
s((I102
tp235
(I120
tp236
tp237
I2
s((I102
tp238
(I121
tp239
tp240
I2
s((I102
tp241
(I118
tp242
tp243
I2
s((I102
tp244
(I119
tp245
tp246
I2
s((I102
tp247
(I117
tp248
tp249
I2
s((I102
tp250
(I115
tp251
tp252
I2
s((I102
tp253
(I112
tp254
tp255
I2
s((I102
tp256
(I109
tp257
tp258
I2
s((I102
tp259
(I107
tp260
tp261
I2
s((I102
tp262
(I104
tp263
tp264
I2
s((I102
tp265
(I105
tp266
tp267
I1
s((I110
tp268
(I118
tp269
tp270
I2
s((I110
tp271
(I116
tp272
tp273
I2
s((I110
tp274
(I114
tp275
tp276
I2
s((I110
tp277
(I115
tp278
tp279
I2
s((I110
tp280
(I112
tp281
tp282
I1
s((I110
tp283
(I124
tp284
tp285
I2
s((I110
tp286
(I122
tp287
tp288
I2
s((I110
tp289
(I123
tp290
tp291
I1
s((I110
tp292
(I120
tp293
tp294
I1
s((I105
tp295
(I115
tp296
tp297
I2
s((I4
tp298
(I5
tp299
tp300
I1
s((I4
tp301
(I6
tp302
tp303
I2
s((I105
tp304
(I112
tp305
tp306
I2
s((I105
tp307
(I119
tp308
tp309
I2
s((I105
tp310
(I118
tp311
tp312
I2
s((I105
tp313
(I117
tp314
tp315
I2
s((I4
tp316
(I12
tp317
tp318
I2
s((I105
tp319
(I122
tp320
tp321
I2
s((I4
tp322
(I14
tp323
tp324
I2
s((I4
tp325
(I15
tp326
tp327
I2
s((I4
tp328
(I8
tp329
tp330
I2
s((I4
tp331
(I9
tp332
tp333
I2
s((I105
tp334
(I125
tp335
tp336
I2
s((I105
tp337
(I124
tp338
tp339
I2
s((I4
tp340
(I20
tp341
tp342
I2
s((I4
tp343
(I21
tp344
tp345
I2
s((I4
tp346
(I17
tp347
tp348
I2
s((I4
tp349
(I18
tp350
tp351
I2
s((I4
tp352
(I19
tp353
tp354
I2
s((I105
tp355
(I107
tp356
tp357
I2
s((I105
tp358
(I106
tp359
tp360
I0
s((I105
tp361
(I111
tp362
tp363
I2
s((I105
tp364
(I110
tp365
tp366
I2
s((I105
tp367
(I109
tp368
tp369
I2
s((I13
tp370
(I15
tp371
tp372
I1
s((I13
tp373
(I14
tp374
tp375
I0
s((I13
tp376
(I21
tp377
tp378
I1
s((I13
tp379
(I20
tp380
tp381
I1
s((I13
tp382
(I19
tp383
tp384
I1
s((I13
tp385
(I18
tp386
tp387
I1
s((I13
tp388
(I17
tp389
tp390
I1
s((I0
tp391
(I9
tp392
tp393
I2
s((I123
tp394
(I125
tp395
tp396
I1
s((I0
tp397
(I3
tp398
tp399
I1
s((I106
tp400
(I111
tp401
tp402
I2
s((I106
tp403
(I108
tp404
tp405
I2
s((I101
tp406
(I106
tp407
tp408
I1
s((I106
tp409
(I122
tp410
tp411
I2
s((I106
tp412
(I123
tp413
tp414
I2
s((I106
tp415
(I120
tp416
tp417
I2
s((I101
tp418
(I105
tp419
tp420
I1
s((I106
tp421
(I125
tp422
tp423
I2
s((I106
tp424
(I115
tp425
tp426
I2
s((I106
tp427
(I112
tp428
tp429
I2
s((I106
tp430
(I118
tp431
tp432
I2
s((I106
tp433
(I119
tp434
tp435
I2
s((I106
tp436
(I116
tp437
tp438
I2
s((I0
tp439
(I8
tp440
tp441
I2
s((I101
tp442
(I102
tp443
tp444
I2
s((I0
tp445
(I10
tp446
tp447
I2
s((I0
tp448
(I11
tp449
tp450
I2
s((I0
tp451
(I12
tp452
tp453
I2
s((I0
tp454
(I14
tp455
tp456
I2
s((I0
tp457
(I15
tp458
tp459
I2
s((I101
tp460
(I111
tp461
tp462
I2
s((I0
tp463
(I1
tp464
tp465
I2
s((I0
tp466
(I2
tp467
tp468
I1
s((I101
tp469
(I108
tp470
tp471
I2
s((I0
tp472
(I4
tp473
tp474
I1
s((I0
tp475
(I5
tp476
tp477
I2
s((I0
tp478
(I6
tp479
tp480
I2
s((I101
tp481
(I104
tp482
tp483
I2
s((I101
tp484
(I119
tp485
tp486
I2
s((I101
tp487
(I117
tp488
tp489
I2
s((I101
tp490
(I114
tp491
tp492
I2
s((I101
tp493
(I113
tp494
tp495
I2
s((I0
tp496
(I16
tp497
tp498
I1
s((I101
tp499
(I125
tp500
tp501
I2
s((I0
tp502
(I19
tp503
tp504
I2
s((I101
tp505
(I123
tp506
tp507
I2
s((I101
tp508
(I122
tp509
tp510
I2
s((I101
tp511
(I121
tp512
tp513
I2
s((I101
tp514
(I120
tp515
tp516
I2
s((I0
tp517
(I18
tp518
tp519
I2
s((I9
tp520
(I18
tp521
tp522
I1
s((I9
tp523
(I17
tp524
tp525
I1
s((I9
tp526
(I16
tp527
tp528
I1
s((I9
tp529
(I21
tp530
tp531
I2
s((I9
tp532
(I20
tp533
tp534
I2
s((I0
tp535
(I20
tp536
tp537
I2
s((I0
tp538
(I21
tp539
tp540
I2
s((I9
tp541
(I11
tp542
tp543
I2
s((I9
tp544
(I10
tp545
tp546
I0
s((I9
tp547
(I15
tp548
tp549
I2
s((I9
tp550
(I14
tp551
tp552
I2
s((I9
tp553
(I13
tp554
tp555
I2
s((I9
tp556
(I12
tp557
tp558
I2
s((I18
tp559
(I19
tp560
tp561
I0
s((I18
tp562
(I20
tp563
tp564
I1
s((I18
tp565
(I21
tp566
tp567
I2
s((I119
tp568
(I121
tp569
tp570
I2
s((I119
tp571
(I120
tp572
tp573
I1
s((I119
tp574
(I123
tp575
tp576
I1
s((I119
tp577
(I125
tp578
tp579
I1
s((I119
tp580
(I124
tp581
tp582
I1
s((I12
tp583
(I13
tp584
tp585
I0
s((I12
tp586
(I14
tp587
tp588
I0
s((I12
tp589
(I15
tp590
tp591
I1
s((I12
tp592
(I21
tp593
tp594
I1
s((I12
tp595
(I16
tp596
tp597
I1
s((I12
tp598
(I17
tp599
tp600
I1
s((I12
tp601
(I18
tp602
tp603
I1
s((I12
tp604
(I19
tp605
tp606
I1
s((I118
tp607
(I124
tp608
tp609
I1
s((I118
tp610
(I125
tp611
tp612
I1
s((I118
tp613
(I123
tp614
tp615
I1
s((I118
tp616
(I120
tp617
tp618
I1
s((I118
tp619
(I121
tp620
tp621
I1
s((I118
tp622
(I119
tp623
tp624
I1
s((I113
tp625
(I122
tp626
tp627
I2
s((I113
tp628
(I120
tp629
tp630
I2
s((I113
tp631
(I125
tp632
tp633
I2
s((I113
tp634
(I124
tp635
tp636
I2
s((I113
tp637
(I115
tp638
tp639
I2
s((I113
tp640
(I114
tp641
tp642
I1
s((I113
tp643
(I117
tp644
tp645
I2
s((I104
tp646
(I112
tp647
tp648
I2
s((I104
tp649
(I113
tp650
tp651
I2
s((I104
tp652
(I114
tp653
tp654
I2
s((I104
tp655
(I116
tp656
tp657
I2
s((I104
tp658
(I117
tp659
tp660
I2
s((I104
tp661
(I118
tp662
tp663
I2
s((I104
tp664
(I119
tp665
tp666
I2
s((I104
tp667
(I121
tp668
tp669
I2
s((I104
tp670
(I122
tp671
tp672
I2
s((I104
tp673
(I123
tp674
tp675
I2
s((I104
tp676
(I124
tp677
tp678
I2
s((I104
tp679
(I125
tp680
tp681
I1
s((I104
tp682
(I105
tp683
tp684
I0
s((I104
tp685
(I106
tp686
tp687
I1
s((I104
tp688
(I107
tp689
tp690
I2
s((I104
tp691
(I110
tp692
tp693
I2
s((I104
tp694
(I111
tp695
tp696
I2
s((I105
tp697
(I114
tp698
tp699
I2
s((I105
tp700
(I113
tp701
tp702
I2
s((I4
tp703
(I7
tp704
tp705
I2
s((I7
tp706
(I17
tp707
tp708
I1
s((I7
tp709
(I16
tp710
tp711
I1
s((I7
tp712
(I19
tp713
tp714
I1
s((I7
tp715
(I21
tp716
tp717
I2
s((I7
tp718
(I20
tp719
tp720
I2
s((I7
tp721
(I9
tp722
tp723
I2
s((I105
tp724
(I123
tp725
tp726
I2
s((I7
tp727
(I11
tp728
tp729
I2
s((I7
tp730
(I10
tp731
tp732
I2
s((I7
tp733
(I13
tp734
tp735
I2
s((I7
tp736
(I12
tp737
tp738
I2
s((I7
tp739
(I15
tp740
tp741
I2
s((I4
tp742
(I13
tp743
tp744
I2
s((I114
tp745
(I115
tp746
tp747
I2
s((I105
tp748
(I120
tp749
tp750
I2
s((I114
tp751
(I118
tp752
tp753
I2
s((I114
tp754
(I119
tp755
tp756
I1
s((I114
tp757
(I116
tp758
tp759
I2
s((I114
tp760
(I121
tp761
tp762
I1
s((I114
tp763
(I124
tp764
tp765
I1
s((I4
tp766
(I10
tp767
tp768
I2
s((I4
tp769
(I11
tp770
tp771
I2
s((I8
tp772
(I16
tp773
tp774
I1
s((I8
tp775
(I17
tp776
tp777
I2
s((I8
tp778
(I20
tp779
tp780
I2
s((I8
tp781
(I21
tp782
tp783
I2
s((I8
tp784
(I9
tp785
tp786
I0
s((I8
tp787
(I11
tp788
tp789
I2
s((I8
tp790
(I12
tp791
tp792
I2
s((I8
tp793
(I14
tp794
tp795
I2
s((I8
tp796
(I15
tp797
tp798
I2
s((I109
tp799
(I111
tp800
tp801
I2
s((I109
tp802
(I110
tp803
tp804
I1
s((I17
tp805
(I19
tp806
tp807
I2
s((I17
tp808
(I18
tp809
tp810
I2
s((I17
tp811
(I21
tp812
tp813
I2
s((I17
tp814
(I20
tp815
tp816
I2
s((I109
tp817
(I125
tp818
tp819
I1
s((I109
tp820
(I124
tp821
tp822
I2
s((I109
tp823
(I122
tp824
tp825
I2
s((I109
tp826
(I121
tp827
tp828
I2
s((I109
tp829
(I119
tp830
tp831
I2
s((I109
tp832
(I117
tp833
tp834
I2
s((I109
tp835
(I116
tp836
tp837
I2
s((I109
tp838
(I115
tp839
tp840
I2
s((I109
tp841
(I112
tp842
tp843
I1
s((I100
tp844
(I101
tp845
tp846
I1
s((I100
tp847
(I109
tp848
tp849
I2
s((I100
tp850
(I110
tp851
tp852
I2
s((I100
tp853
(I111
tp854
tp855
I2
s((I100
tp856
(I104
tp857
tp858
I2
s((I100
tp859
(I106
tp860
tp861
I2
s((I100
tp862
(I116
tp863
tp864
I2
s((I100
tp865
(I118
tp866
tp867
I2
s((I100
tp868
(I112
tp869
tp870
I2
s((I100
tp871
(I114
tp872
tp873
I2
s((I100
tp874
(I115
tp875
tp876
I2
s((I100
tp877
(I124
tp878
tp879
I2
s((I100
tp880
(I125
tp881
tp882
I2
s((I100
tp883
(I120
tp884
tp885
I2
s((I100
tp886
(I122
tp887
tp888
I2
s((I100
tp889
(I123
tp890
tp891
I2
s((I7
tp892
(I8
tp893
tp894
I2
s((I103
tp895
(I115
tp896
tp897
I2
s((I103
tp898
(I120
tp899
tp900
I2
s((I2
tp901
(I6
tp902
tp903
I2
s((I2
tp904
(I7
tp905
tp906
I2
s((I3
tp907
(I13
tp908
tp909
I2
s((I3
tp910
(I12
tp911
tp912
I2
s((I3
tp913
(I15
tp914
tp915
I2
s((I3
tp916
(I14
tp917
tp918
I2
s((I3
tp919
(I9
tp920
tp921
I2
s((I3
tp922
(I11
tp923
tp924
I2
s((I3
tp925
(I10
tp926
tp927
I2
s((I3
tp928
(I5
tp929
tp930
I1
s((I3
tp931
(I4
tp932
tp933
I1
s((I3
tp934
(I7
tp935
tp936
I2
s((I103
tp937
(I113
tp938
tp939
I2
s((I2
tp940
(I11
tp941
tp942
I2
s((I3
tp943
(I21
tp944
tp945
I2
s((I3
tp946
(I17
tp947
tp948
I2
s((I3
tp949
(I16
tp950
tp951
I2
s((I3
tp952
(I19
tp953
tp954
I2
s((I3
tp955
(I18
tp956
tp957
I2
s((I20
tp958
(I21
tp959
tp960
I1
s((I2
tp961
(I15
tp962
tp963
I2
s((I103
tp964
(I119
tp965
tp966
I2
s((I2
tp967
(I18
tp968
tp969
I2
s((I103
tp970
(I104
tp971
tp972
I0
s((I2
tp973
(I16
tp974
tp975
I2
s((I103
tp976
(I106
tp977
tp978
I1
s((I2
tp979
(I21
tp980
tp981
I2
s((I121
tp982
(I123
tp983
tp984
I1
s((I121
tp985
(I122
tp986
tp987
I1
s((I121
tp988
(I124
tp989
tp990
I1
s((I112
tp991
(I120
tp992
tp993
I2
s((I112
tp994
(I121
tp995
tp996
I2
s((I112
tp997
(I123
tp998
tp999
I2
s((I112
tp1000
(I114
tp1001
tp1002
I2
s((I112
tp1003
(I116
tp1004
tp1005
I2
s((I112
tp1006
(I117
tp1007
tp1008
I2
s((I112
tp1009
(I118
tp1010
tp1011
I2
s((I107
tp1012
(I117
tp1013
tp1014
I2
s((I107
tp1015
(I119
tp1016
tp1017
I2
s((I107
tp1018
(I118
tp1019
tp1020
I2
s((I107
tp1021
(I113
tp1022
tp1023
I1
s((I107
tp1024
(I112
tp1025
tp1026
I1
s((I107
tp1027
(I115
tp1028
tp1029
I2
s((I107
tp1030
(I114
tp1031
tp1032
I2
s((I107
tp1033
(I125
tp1034
tp1035
I1
s((I107
tp1036
(I124
tp1037
tp1038
I2
s((I6
tp1039
(I21
tp1040
tp1041
I2
s((I107
tp1042
(I121
tp1043
tp1044
I2
s((I6
tp1045
(I19
tp1046
tp1047
I2
s((I6
tp1048
(I16
tp1049
tp1050
I1
s((I6
tp1051
(I17
tp1052
tp1053
I1
s((I6
tp1054
(I15
tp1055
tp1056
I2
s((I6
tp1057
(I12
tp1058
tp1059
I2
s((I6
tp1060
(I10
tp1061
tp1062
I2
s((I6
tp1063
(I11
tp1064
tp1065
I2
s((I6
tp1066
(I8
tp1067
tp1068
I2
s((I6
tp1069
(I9
tp1070
tp1071
I2
s((I6
tp1072
(I7
tp1073
tp1074
I1
s((I107
tp1075
(I110
tp1076
tp1077
I1
s((I15
tp1078
(I17
tp1079
tp1080
I1
s((I15
tp1081
(I16
tp1082
tp1083
I1
s((I15
tp1084
(I19
tp1085
tp1086
I1
s((I15
tp1087
(I18
tp1088
tp1089
I1
s((I15
tp1090
(I21
tp1091
tp1092
I1
s((I15
tp1093
(I20
tp1094
tp1095
I1
s((I16
tp1096
(I17
tp1097
tp1098
I2
s((I16
tp1099
(I20
tp1100
tp1101
I2
s((I16
tp1102
(I21
tp1103
tp1104
I2
s((I122
tp1105
(I123
tp1106
tp1107
I1
s((I122
tp1108
(I124
tp1109
tp1110
I0
s((I122
tp1111
(I125
tp1112
tp1113
I1
s((I117
tp1114
(I118
tp1115
tp1116
I0
s((I117
tp1117
(I124
tp1118
tp1119
I1
s((I117
tp1120
(I123
tp1121
tp1122
I1
s((I117
tp1123
(I122
tp1124
tp1125
I1
s((I108
tp1126
(I109
tp1127
tp1128
I0
s((I108
tp1129
(I110
tp1130
tp1131
I2
s((I108
tp1132
(I111
tp1133
tp1134
I1
s((I108
tp1135
(I124
tp1136
tp1137
I2
s((I108
tp1138
(I125
tp1139
tp1140
I1
s((I108
tp1141
(I121
tp1142
tp1143
I2
s((I108
tp1144
(I122
tp1145
tp1146
I2
s((I108
tp1147
(I123
tp1148
tp1149
I2
s((I108
tp1150
(I116
tp1151
tp1152
I2
s((I108
tp1153
(I118
tp1154
tp1155
I2
s((I108
tp1156
(I115
tp1157
tp1158
I2
s((I103
tp1159
(I121
tp1160
tp1161
I2
s((I2
tp1162
(I3
tp1163
tp1164
I0
s((I103
tp1165
(I123
tp1166
tp1167
I2
s((I103
tp1168
(I122
tp1169
tp1170
I2
s((I103
tp1171
(I125
tp1172
tp1173
I2
s((I103
tp1174
(I124
tp1175
tp1176
I2
s((I2
tp1177
(I4
tp1178
tp1179
I2
s((I2
tp1180
(I5
tp1181
tp1182
I2
s((I2
tp1183
(I10
tp1184
tp1185
I2
s((I103
tp1186
(I112
tp1187
tp1188
I2
s((I2
tp1189
(I8
tp1190
tp1191
I2
s((I103
tp1192
(I117
tp1193
tp1194
I2
s((I103
tp1195
(I116
tp1196
tp1197
I2
s((I2
tp1198
(I12
tp1199
tp1200
I2
s((I2
tp1201
(I13
tp1202
tp1203
I2
s((I103
tp1204
(I105
tp1205
tp1206
I1
s((I2
tp1207
(I19
tp1208
tp1209
I2
s((I103
tp1210
(I107
tp1211
tp1212
I2
s((I2
tp1213
(I17
tp1214
tp1215
I2
s((I103
tp1216
(I109
tp1217
tp1218
I2
s((I103
tp1219
(I108
tp1220
tp1221
I2
s((I2
tp1222
(I20
tp1223
tp1224
I2
s((I103
tp1225
(I110
tp1226
tp1227
I2
s((I11
tp1228
(I20
tp1229
tp1230
I1
s((I11
tp1231
(I17
tp1232
tp1233
I1
s((I11
tp1234
(I16
tp1235
tp1236
I1
s((I11
tp1237
(I19
tp1238
tp1239
I1
s((I11
tp1240
(I18
tp1241
tp1242
I1
s((I11
tp1243
(I13
tp1244
tp1245
I0
s((I11
tp1246
(I12
tp1247
tp1248
I0
s((I11
tp1249
(I15
tp1250
tp1251
I1
s((I11
tp1252
(I14
tp1253
tp1254
I0
s.