(dp0
((I12
tp1
(I13
tp2
tp3
I0
s((I12
tp4
(I14
tp5
tp6
I0
s((I12
tp7
(I15
tp8
tp9
I1
s((I20
tp10
(I21
tp11
tp12
I1
s((I2
tp13
(I14
tp14
tp15
I2
s((I109
tp16
(I111
tp17
tp18
I1
s((I6
tp19
(I19
tp20
tp21
I1
s((I110
tp22
(I118
tp23
tp24
I2
s((I110
tp25
(I119
tp26
tp27
I2
s((I110
tp28
(I116
tp29
tp30
I2
s((I110
tp31
(I117
tp32
tp33
I2
s((I110
tp34
(I114
tp35
tp36
I2
s((I110
tp37
(I115
tp38
tp39
I2
s((I110
tp40
(I112
tp41
tp42
I1
s((I110
tp43
(I113
tp44
tp45
I1
s((I12
tp46
(I20
tp47
tp48
I1
s((I12
tp49
(I21
tp50
tp51
I1
s((I110
tp52
(I124
tp53
tp54
I1
s((I2
tp55
(I13
tp56
tp57
I2
s((I12
tp58
(I16
tp59
tp60
I1
s((I12
tp61
(I17
tp62
tp63
I1
s((I12
tp64
(I18
tp65
tp66
I1
s((I12
tp67
(I19
tp68
tp69
I1
s((I105
tp70
(I115
tp71
tp72
I2
s((I105
tp73
(I114
tp74
tp75
I2
s((I105
tp76
(I113
tp77
tp78
I2
s((I105
tp79
(I119
tp80
tp81
I2
s((I105
tp82
(I118
tp83
tp84
I2
s((I105
tp85
(I117
tp86
tp87
I2
s((I105
tp88
(I116
tp89
tp90
I2
s((I4
tp91
(I12
tp92
tp93
I2
s((I4
tp94
(I13
tp95
tp96
I2
s((I4
tp97
(I14
tp98
tp99
I2
s((I4
tp100
(I15
tp101
tp102
I2
s((I4
tp103
(I8
tp104
tp105
I2
s((I105
tp106
(I125
tp107
tp108
I1
s((I4
tp109
(I11
tp110
tp111
I2
s((I118
tp112
(I124
tp113
tp114
I1
s((I118
tp115
(I125
tp116
tp117
I1
s((I118
tp118
(I122
tp119
tp120
I1
s((I118
tp121
(I123
tp122
tp123
I1
s((I118
tp124
(I120
tp125
tp126
I1
s((I118
tp127
(I121
tp128
tp129
I1
s((I118
tp130
(I119
tp131
tp132
I1
s((I105
tp133
(I108
tp134
tp135
I2
s((I13
tp136
(I15
tp137
tp138
I1
s((I13
tp139
(I14
tp140
tp141
I0
s((I113
tp142
(I115
tp143
tp144
I2
s((I9
tp145
(I21
tp146
tp147
I1
s((I113
tp148
(I118
tp149
tp150
I2
s((I113
tp151
(I117
tp152
tp153
I2
s((I113
tp154
(I116
tp155
tp156
I2
s((I102
tp157
(I122
tp158
tp159
I2
s((I102
tp160
(I124
tp161
tp162
I2
s((I1
tp163
(I8
tp164
tp165
I2
s((I107
tp166
(I108
tp167
tp168
I2
s((I13
tp169
(I21
tp170
tp171
I1
s((I13
tp172
(I20
tp173
tp174
I1
s((I13
tp175
(I19
tp176
tp177
I1
s((I13
tp178
(I18
tp179
tp180
I1
s((I13
tp181
(I17
tp182
tp183
I1
s((I13
tp184
(I16
tp185
tp186
I1
s((I104
tp187
(I112
tp188
tp189
I2
s((I5
tp190
(I6
tp191
tp192
I1
s((I104
tp193
(I115
tp194
tp195
I2
s((I104
tp196
(I116
tp197
tp198
I2
s((I104
tp199
(I117
tp200
tp201
I2
s((I104
tp202
(I118
tp203
tp204
I2
s((I104
tp205
(I119
tp206
tp207
I2
s((I5
tp208
(I15
tp209
tp210
I2
s((I5
tp211
(I14
tp212
tp213
I2
s((I5
tp214
(I13
tp215
tp216
I2
s((I5
tp217
(I12
tp218
tp219
I2
s((I5
tp220
(I11
tp221
tp222
I2
s((I104
tp223
(I125
tp224
tp225
I2
s((I104
tp226
(I120
tp227
tp228
I1
s((I5
tp229
(I21
tp230
tp231
I2
s((I5
tp232
(I20
tp233
tp234
I2
s((I5
tp235
(I19
tp236
tp237
I2
s((I5
tp238
(I18
tp239
tp240
I1
s((I5
tp241
(I16
tp242
tp243
I2
s((I104
tp244
(I106
tp245
tp246
I1
s((I104
tp247
(I107
tp248
tp249
I2
s((I0
tp250
(I9
tp251
tp252
I2
s((I121
tp253
(I125
tp254
tp255
I1
s((I1
tp256
(I12
tp257
tp258
I2
s((I112
tp259
(I123
tp260
tp261
I1
s((I112
tp262
(I124
tp263
tp264
I1
s((I11
tp265
(I21
tp266
tp267
I1
s((I14
tp268
(I15
tp269
tp270
I1
s((I1
tp271
(I19
tp272
tp273
I2
s((I112
tp274
(I115
tp275
tp276
I2
s((I112
tp277
(I116
tp278
tp279
I2
s((I112
tp280
(I117
tp281
tp282
I2
s((I112
tp283
(I118
tp284
tp285
I2
s((I112
tp286
(I119
tp287
tp288
I2
s((I14
tp289
(I20
tp290
tp291
I1
s((I14
tp292
(I21
tp293
tp294
I1
s((I14
tp295
(I18
tp296
tp297
I1
s((I14
tp298
(I19
tp299
tp300
I1
s((I14
tp301
(I16
tp302
tp303
I1
s((I14
tp304
(I17
tp305
tp306
I1
s((I107
tp307
(I117
tp308
tp309
I2
s((I107
tp310
(I116
tp311
tp312
I2
s((I107
tp313
(I119
tp314
tp315
I2
s((I107
tp316
(I118
tp317
tp318
I2
s((I107
tp319
(I112
tp320
tp321
I1
s((I107
tp322
(I115
tp323
tp324
I2
s((I107
tp325
(I125
tp326
tp327
I1
s((I3
tp328
(I20
tp329
tp330
I2
s((I6
tp331
(I20
tp332
tp333
I2
s((I6
tp334
(I21
tp335
tp336
I2
s((I6
tp337
(I18
tp338
tp339
I1
s((I107
tp340
(I120
tp341
tp342
I1
s((I107
tp343
(I123
tp344
tp345
I1
s((I110
tp346
(I123
tp347
tp348
I1
s((I6
tp349
(I14
tp350
tp351
I2
s((I6
tp352
(I15
tp353
tp354
I2
s((I6
tp355
(I12
tp356
tp357
I2
s((I6
tp358
(I13
tp359
tp360
I2
s((I6
tp361
(I10
tp362
tp363
I2
s((I6
tp364
(I11
tp365
tp366
I2
s((I6
tp367
(I8
tp368
tp369
I2
s((I6
tp370
(I9
tp371
tp372
I2
s((I120
tp373
(I121
tp374
tp375
I2
s((I120
tp376
(I125
tp377
tp378
I2
s((I115
tp379
(I125
tp380
tp381
I1
s((I115
tp382
(I124
tp383
tp384
I1
s((I115
tp385
(I121
tp386
tp387
I1
s((I115
tp388
(I120
tp389
tp390
I1
s((I115
tp391
(I123
tp392
tp393
I1
s((I115
tp394
(I122
tp395
tp396
I1
s((I115
tp397
(I117
tp398
tp399
I0
s((I115
tp400
(I116
tp401
tp402
I0
s((I115
tp403
(I119
tp404
tp405
I1
s((I115
tp406
(I118
tp407
tp408
I0
s((I122
tp409
(I125
tp410
tp411
I1
s((I15
tp412
(I19
tp413
tp414
I1
s((I0
tp415
(I11
tp416
tp417
I2
s((I119
tp418
(I123
tp419
tp420
I1
s((I15
tp421
(I20
tp422
tp423
I1
s((I100
tp424
(I125
tp425
tp426
I2
s((I0
tp427
(I13
tp428
tp429
I2
s((I122
tp430
(I123
tp431
tp432
I1
s((I100
tp433
(I120
tp434
tp435
I1
s((I7
tp436
(I18
tp437
tp438
I1
s((I7
tp439
(I9
tp440
tp441
I2
s((I7
tp442
(I11
tp443
tp444
I2
s((I7
tp445
(I10
tp446
tp447
I2
s((I7
tp448
(I13
tp449
tp450
I2
s((I7
tp451
(I12
tp452
tp453
I2
s((I7
tp454
(I14
tp455
tp456
I2
s((I123
tp457
(I125
tp458
tp459
I1
s((I1
tp460
(I20
tp461
tp462
I2
s((I111
tp463
(I116
tp464
tp465
I2
s((I114
tp466
(I115
tp467
tp468
I2
s((I114
tp469
(I118
tp470
tp471
I2
s((I106
tp472
(I111
tp473
tp474
I2
s((I106
tp475
(I108
tp476
tp477
I2
s((I114
tp478
(I117
tp479
tp480
I2
s((I114
tp481
(I123
tp482
tp483
I1
s((I114
tp484
(I121
tp485
tp486
I1
s((I108
tp487
(I110
tp488
tp489
I1
s((I101
tp490
(I106
tp491
tp492
I1
s((I106
tp493
(I124
tp494
tp495
I2
s((I106
tp496
(I125
tp497
tp498
I2
s((I106
tp499
(I114
tp500
tp501
I2
s((I106
tp502
(I115
tp503
tp504
I2
s((I0
tp505
(I7
tp506
tp507
I2
s((I106
tp508
(I118
tp509
tp510
I2
s((I106
tp511
(I116
tp512
tp513
I2
s((I106
tp514
(I117
tp515
tp516
I2
s((I101
tp517
(I102
tp518
tp519
I2
s((I0
tp520
(I10
tp521
tp522
I2
s((I8
tp523
(I19
tp524
tp525
I1
s((I0
tp526
(I12
tp527
tp528
I2
s((I8
tp529
(I21
tp530
tp531
I1
s((I0
tp532
(I14
tp533
tp534
I2
s((I0
tp535
(I15
tp536
tp537
I2
s((I0
tp538
(I1
tp539
tp540
I1
s((I0
tp541
(I5
tp542
tp543
I2
s((I0
tp544
(I6
tp545
tp546
I2
s((I101
tp547
(I104
tp548
tp549
I2
s((I101
tp550
(I118
tp551
tp552
I2
s((I101
tp553
(I117
tp554
tp555
I2
s((I101
tp556
(I116
tp557
tp558
I2
s((I101
tp559
(I115
tp560
tp561
I2
s((I101
tp562
(I113
tp563
tp564
I1
s((I0
tp565
(I16
tp566
tp567
I2
s((I0
tp568
(I17
tp569
tp570
I2
s((I8
tp571
(I11
tp572
tp573
I2
s((I8
tp574
(I12
tp575
tp576
I2
s((I101
tp577
(I122
tp578
tp579
I2
s((I8
tp580
(I14
tp581
tp582
I2
s((I117
tp583
(I119
tp584
tp585
I1
s((I117
tp586
(I118
tp587
tp588
I0
s((I113
tp589
(I122
tp590
tp591
I2
s((I11
tp592
(I20
tp593
tp594
I1
s((I6
tp595
(I17
tp596
tp597
I1
s((I117
tp598
(I125
tp599
tp600
I1
s((I117
tp601
(I124
tp602
tp603
I1
s((I117
tp604
(I123
tp605
tp606
I1
s((I117
tp607
(I122
tp608
tp609
I1
s((I117
tp610
(I121
tp611
tp612
I1
s((I117
tp613
(I120
tp614
tp615
I1
s((I3
tp616
(I14
tp617
tp618
I2
s((I109
tp619
(I123
tp620
tp621
I1
s((I109
tp622
(I122
tp623
tp624
I1
s((I109
tp625
(I121
tp626
tp627
I2
s((I109
tp628
(I118
tp629
tp630
I2
s((I109
tp631
(I117
tp632
tp633
I2
s((I109
tp634
(I116
tp635
tp636
I2
s((I109
tp637
(I115
tp638
tp639
I2
s((I109
tp640
(I114
tp641
tp642
I2
s((I109
tp643
(I113
tp644
tp645
I1
s((I6
tp646
(I16
tp647
tp648
I2
s((I1
tp649
(I11
tp650
tp651
I2
s((I114
tp652
(I116
tp653
tp654
I2
s((I9
tp655
(I16
tp656
tp657
I1
s((I1
tp658
(I14
tp659
tp660
I2
s((I1
tp661
(I13
tp662
tp663
I2
s((I9
tp664
(I20
tp665
tp666
I1
s((I1
tp667
(I3
tp668
tp669
I2
s((I0
tp670
(I20
tp671
tp672
I2
s((I100
tp673
(I110
tp674
tp675
I2
s((I3
tp676
(I10
tp677
tp678
I1
s((I100
tp679
(I104
tp680
tp681
I2
s((I1
tp682
(I5
tp683
tp684
I2
s((I8
tp685
(I13
tp686
tp687
I2
s((I100
tp688
(I116
tp689
tp690
I2
s((I100
tp691
(I117
tp692
tp693
I2
s((I100
tp694
(I118
tp695
tp696
I2
s((I100
tp697
(I113
tp698
tp699
I2
s((I100
tp700
(I115
tp701
tp702
I2
s((I9
tp703
(I11
tp704
tp705
I2
s((I1
tp706
(I18
tp707
tp708
I2
s((I1
tp709
(I17
tp710
tp711
I1
s((I1
tp712
(I16
tp713
tp714
I2
s((I9
tp715
(I15
tp716
tp717
I2
s((I9
tp718
(I14
tp719
tp720
I2
s((I9
tp721
(I13
tp722
tp723
I2
s((I9
tp724
(I12
tp725
tp726
I2
s((I113
tp727
(I123
tp728
tp729
I2
s((I116
tp730
(I118
tp731
tp732
I0
s((I116
tp733
(I119
tp734
tp735
I1
s((I10
tp736
(I14
tp737
tp738
I2
s((I10
tp739
(I15
tp740
tp741
I2
s((I10
tp742
(I12
tp743
tp744
I2
s((I10
tp745
(I13
tp746
tp747
I2
s((I116
tp748
(I124
tp749
tp750
I1
s((I116
tp751
(I125
tp752
tp753
I1
s((I116
tp754
(I120
tp755
tp756
I1
s((I116
tp757
(I121
tp758
tp759
I1
s((I116
tp760
(I122
tp761
tp762
I1
s((I116
tp763
(I123
tp764
tp765
I1
s((I108
tp766
(I120
tp767
tp768
I1
s((I108
tp769
(I121
tp770
tp771
I1
s((I18
tp772
(I20
tp773
tp774
I2
s((I10
tp775
(I19
tp776
tp777
I1
s((I108
tp778
(I116
tp779
tp780
I2
s((I108
tp781
(I117
tp782
tp783
I2
s((I108
tp784
(I118
tp785
tp786
I2
s((I10
tp787
(I16
tp788
tp789
I1
s((I10
tp790
(I20
tp791
tp792
I1
s((I108
tp793
(I115
tp794
tp795
I2
s((I103
tp796
(I121
tp797
tp798
I2
s((I119
tp799
(I121
tp800
tp801
I2
s((I2
tp802
(I6
tp803
tp804
I2
s((I2
tp805
(I7
tp806
tp807
I2
s((I2
tp808
(I11
tp809
tp810
I2
s((I103
tp811
(I115
tp812
tp813
I2
s((I103
tp814
(I117
tp815
tp816
I2
s((I103
tp817
(I116
tp818
tp819
I2
s((I2
tp820
(I12
tp821
tp822
I2
s((I103
tp823
(I118
tp824
tp825
I2
s((I103
tp826
(I105
tp827
tp828
I1
s((I2
tp829
(I16
tp830
tp831
I1
s((I103
tp832
(I109
tp833
tp834
I2
s((I103
tp835
(I108
tp836
tp837
I2
s((I11
tp838
(I19
tp839
tp840
I1
s((I5
tp841
(I10
tp842
tp843
I2
s((I1
tp844
(I2
tp845
tp846
I2
s((I10
tp847
(I11
tp848
tp849
I2
s((I0
tp850
(I21
tp851
tp852
I2
s((I19
tp853
(I21
tp854
tp855
I1
s((I19
tp856
(I20
tp857
tp858
I0
s((I111
tp859
(I113
tp860
tp861
I1
s((I111
tp862
(I115
tp863
tp864
I2
s((I111
tp865
(I114
tp866
tp867
I2
s((I111
tp868
(I117
tp869
tp870
I2
s((I17
tp871
(I21
tp872
tp873
I2
s((I111
tp874
(I118
tp875
tp876
I2
s((I17
tp877
(I20
tp878
tp879
I2
s((I111
tp880
(I124
tp881
tp882
I1
s((I3
tp883
(I13
tp884
tp885
I2
s((I3
tp886
(I12
tp887
tp888
I2
s((I3
tp889
(I15
tp890
tp891
I2
s((I102
tp892
(I125
tp893
tp894
I1
s((I11
tp895
(I17
tp896
tp897
I1
s((I11
tp898
(I16
tp899
tp900
I1
s((I3
tp901
(I11
tp902
tp903
I2
s((I11
tp904
(I18
tp905
tp906
I1
s((I102
tp907
(I118
tp908
tp909
I2
s((I102
tp910
(I116
tp911
tp912
I2
s((I102
tp913
(I117
tp914
tp915
I2
s((I102
tp916
(I115
tp917
tp918
I2
s((I102
tp919
(I113
tp920
tp921
I2
s((I116
tp922
(I117
tp923
tp924
I0
s((I102
tp925
(I111
tp926
tp927
I2
s((I102
tp928
(I108
tp929
tp930
I2
s((I102
tp931
(I104
tp932
tp933
I1
s((I11
tp934
(I13
tp935
tp936
I0
s((I11
tp937
(I12
tp938
tp939
I0
s((I11
tp940
(I15
tp941
tp942
I1
s((I11
tp943
(I14
tp944
tp945
I0
s((I3
tp946
(I16
tp947
tp948
I2
s((I3
tp949
(I18
tp950
tp951
I2
s.