(dp0
((I107
tp1
(I121
tp2
tp3
I2
s((I6
tp4
(I19
tp5
tp6
I2
s((I107
tp7
(I123
tp8
tp9
I2
s((I107
tp10
(I122
tp11
tp12
I2
s((I6
tp13
(I7
tp14
tp15
I2
s((I5
tp16
(I7
tp17
tp18
I2
s((I5
tp19
(I6
tp20
tp21
I2
s((I5
tp22
(I15
tp23
tp24
I2
s((I5
tp25
(I14
tp26
tp27
I2
s((I5
tp28
(I13
tp29
tp30
I2
s((I5
tp31
(I12
tp32
tp33
I2
s((I5
tp34
(I11
tp35
tp36
I2
s((I5
tp37
(I10
tp38
tp39
I2
s((I5
tp40
(I9
tp41
tp42
I2
s((I5
tp43
(I8
tp44
tp45
I2
s((I5
tp46
(I21
tp47
tp48
I1
s((I5
tp49
(I20
tp50
tp51
I2
s((I5
tp52
(I19
tp53
tp54
I2
s((I5
tp55
(I18
tp56
tp57
I2
s((I5
tp58
(I17
tp59
tp60
I2
s((I5
tp61
(I16
tp62
tp63
I2
s((I14
tp64
(I15
tp65
tp66
I1
s((I14
tp67
(I20
tp68
tp69
I1
s((I14
tp70
(I21
tp71
tp72
I1
s((I14
tp73
(I18
tp74
tp75
I1
s((I14
tp76
(I19
tp77
tp78
I1
s((I14
tp79
(I16
tp80
tp81
I1
s((I14
tp82
(I17
tp83
tp84
I1
s((I2
tp85
(I8
tp86
tp87
I2
s((I120
tp88
(I121
tp89
tp90
I2
s((I120
tp91
(I122
tp92
tp93
I2
s((I120
tp94
(I123
tp95
tp96
I2
s((I120
tp97
(I124
tp98
tp99
I2
s((I120
tp100
(I125
tp101
tp102
I2
s((I115
tp103
(I125
tp104
tp105
I1
s((I115
tp106
(I124
tp107
tp108
I1
s((I115
tp109
(I121
tp110
tp111
I1
s((I115
tp112
(I120
tp113
tp114
I1
s((I115
tp115
(I123
tp116
tp117
I1
s((I115
tp118
(I122
tp119
tp120
I1
s((I115
tp121
(I117
tp122
tp123
I0
s((I115
tp124
(I116
tp125
tp126
I0
s((I115
tp127
(I119
tp128
tp129
I1
s((I115
tp130
(I118
tp131
tp132
I0
s((I116
tp133
(I117
tp134
tp135
I0
s((I1
tp136
(I11
tp137
tp138
I2
s((I1
tp139
(I10
tp140
tp141
I2
s((I1
tp142
(I9
tp143
tp144
I2
s((I1
tp145
(I8
tp146
tp147
I2
s((I1
tp148
(I15
tp149
tp150
I2
s((I1
tp151
(I14
tp152
tp153
I2
s((I1
tp154
(I13
tp155
tp156
I2
s((I1
tp157
(I12
tp158
tp159
I2
s((I1
tp160
(I3
tp161
tp162
I2
s((I1
tp163
(I2
tp164
tp165
I2
s((I1
tp166
(I7
tp167
tp168
I2
s((I1
tp169
(I6
tp170
tp171
I2
s((I1
tp172
(I5
tp173
tp174
I2
s((I1
tp175
(I4
tp176
tp177
I2
s((I1
tp178
(I19
tp179
tp180
I2
s((I1
tp181
(I18
tp182
tp183
I2
s((I1
tp184
(I17
tp185
tp186
I2
s((I1
tp187
(I16
tp188
tp189
I2
s((I1
tp190
(I21
tp191
tp192
I1
s((I1
tp193
(I20
tp194
tp195
I2
s((I10
tp196
(I11
tp197
tp198
I2
s((I116
tp199
(I118
tp200
tp201
I0
s((I116
tp202
(I119
tp203
tp204
I1
s((I10
tp205
(I14
tp206
tp207
I2
s((I10
tp208
(I15
tp209
tp210
I2
s((I10
tp211
(I12
tp212
tp213
I2
s((I10
tp214
(I13
tp215
tp216
I2
s((I116
tp217
(I124
tp218
tp219
I1
s((I116
tp220
(I125
tp221
tp222
I1
s((I116
tp223
(I120
tp224
tp225
I1
s((I116
tp226
(I121
tp227
tp228
I1
s((I116
tp229
(I122
tp230
tp231
I1
s((I116
tp232
(I123
tp233
tp234
I1
s((I10
tp235
(I18
tp236
tp237
I1
s((I10
tp238
(I19
tp239
tp240
I2
s((I10
tp241
(I16
tp242
tp243
I2
s((I10
tp244
(I17
tp245
tp246
I0
s((I10
tp247
(I20
tp248
tp249
I2
s((I10
tp250
(I21
tp251
tp252
I1
s((I19
tp253
(I21
tp254
tp255
I1
s((I19
tp256
(I20
tp257
tp258
I1
s((I111
tp259
(I113
tp260
tp261
I1
s((I111
tp262
(I112
tp263
tp264
I1
s((I111
tp265
(I115
tp266
tp267
I2
s((I111
tp268
(I114
tp269
tp270
I1
s((I111
tp271
(I117
tp272
tp273
I2
s((I111
tp274
(I116
tp275
tp276
I2
s((I111
tp277
(I119
tp278
tp279
I2
s((I111
tp280
(I118
tp281
tp282
I2
s((I111
tp283
(I121
tp284
tp285
I1
s((I111
tp286
(I120
tp287
tp288
I1
s((I111
tp289
(I123
tp290
tp291
I0
s((I111
tp292
(I122
tp293
tp294
I2
s((I111
tp295
(I125
tp296
tp297
I2
s((I111
tp298
(I124
tp299
tp300
I0
s((I102
tp301
(I124
tp302
tp303
I2
s((I102
tp304
(I125
tp305
tp306
I2
s((I102
tp307
(I122
tp308
tp309
I2
s((I102
tp310
(I123
tp311
tp312
I2
s((I102
tp313
(I120
tp314
tp315
I0
s((I102
tp316
(I121
tp317
tp318
I0
s((I102
tp319
(I118
tp320
tp321
I2
s((I102
tp322
(I119
tp323
tp324
I2
s((I102
tp325
(I116
tp326
tp327
I2
s((I102
tp328
(I117
tp329
tp330
I2
s((I102
tp331
(I114
tp332
tp333
I2
s((I102
tp334
(I115
tp335
tp336
I2
s((I102
tp337
(I112
tp338
tp339
I2
s((I102
tp340
(I113
tp341
tp342
I1
s((I102
tp343
(I110
tp344
tp345
I2
s((I102
tp346
(I111
tp347
tp348
I2
s((I102
tp349
(I108
tp350
tp351
I2
s((I102
tp352
(I109
tp353
tp354
I2
s((I102
tp355
(I106
tp356
tp357
I1
s((I102
tp358
(I107
tp359
tp360
I1
s((I102
tp361
(I104
tp362
tp363
I2
s((I102
tp364
(I105
tp365
tp366
I1
s((I102
tp367
(I103
tp368
tp369
I1
s((I110
tp370
(I111
tp371
tp372
I1
s((I110
tp373
(I118
tp374
tp375
I2
s((I110
tp376
(I119
tp377
tp378
I1
s((I110
tp379
(I116
tp380
tp381
I2
s((I110
tp382
(I117
tp383
tp384
I2
s((I110
tp385
(I114
tp386
tp387
I1
s((I110
tp388
(I115
tp389
tp390
I2
s((I110
tp391
(I112
tp392
tp393
I1
s((I110
tp394
(I113
tp395
tp396
I1
s((I110
tp397
(I124
tp398
tp399
I1
s((I110
tp400
(I125
tp401
tp402
I1
s((I110
tp403
(I122
tp404
tp405
I1
s((I110
tp406
(I123
tp407
tp408
I1
s((I110
tp409
(I120
tp410
tp411
I1
s((I110
tp412
(I121
tp413
tp414
I1
s((I105
tp415
(I115
tp416
tp417
I2
s((I4
tp418
(I5
tp419
tp420
I1
s((I4
tp421
(I6
tp422
tp423
I2
s((I4
tp424
(I7
tp425
tp426
I2
s((I105
tp427
(I119
tp428
tp429
I2
s((I105
tp430
(I118
tp431
tp432
I2
s((I105
tp433
(I117
tp434
tp435
I2
s((I105
tp436
(I116
tp437
tp438
I2
s((I4
tp439
(I12
tp440
tp441
I2
s((I4
tp442
(I13
tp443
tp444
I2
s((I4
tp445
(I14
tp446
tp447
I2
s((I4
tp448
(I15
tp449
tp450
I2
s((I4
tp451
(I8
tp452
tp453
I2
s((I4
tp454
(I9
tp455
tp456
I2
s((I4
tp457
(I10
tp458
tp459
I2
s((I4
tp460
(I11
tp461
tp462
I2
s((I4
tp463
(I20
tp464
tp465
I2
s((I4
tp466
(I21
tp467
tp468
I1
s((I4
tp469
(I16
tp470
tp471
I2
s((I4
tp472
(I17
tp473
tp474
I2
s((I4
tp475
(I18
tp476
tp477
I2
s((I4
tp478
(I19
tp479
tp480
I2
s((I105
tp481
(I107
tp482
tp483
I2
s((I105
tp484
(I106
tp485
tp486
I1
s((I105
tp487
(I111
tp488
tp489
I2
s((I105
tp490
(I110
tp491
tp492
I2
s((I105
tp493
(I109
tp494
tp495
I2
s((I105
tp496
(I108
tp497
tp498
I2
s((I13
tp499
(I15
tp500
tp501
I1
s((I13
tp502
(I14
tp503
tp504
I0
s((I13
tp505
(I21
tp506
tp507
I1
s((I13
tp508
(I20
tp509
tp510
I1
s((I13
tp511
(I19
tp512
tp513
I1
s((I13
tp514
(I18
tp515
tp516
I1
s((I13
tp517
(I17
tp518
tp519
I1
s((I13
tp520
(I16
tp521
tp522
I1
s((I101
tp523
(I103
tp524
tp525
I2
s((I101
tp526
(I102
tp527
tp528
I0
s((I101
tp529
(I110
tp530
tp531
I2
s((I123
tp532
(I125
tp533
tp534
I2
s((I123
tp535
(I124
tp536
tp537
I1
s((I0
tp538
(I2
tp539
tp540
I2
s((I106
tp541
(I107
tp542
tp543
I2
s((I101
tp544
(I108
tp545
tp546
I2
s((I106
tp547
(I110
tp548
tp549
I2
s((I106
tp550
(I111
tp551
tp552
I2
s((I106
tp553
(I108
tp554
tp555
I2
s((I106
tp556
(I109
tp557
tp558
I2
s((I0
tp559
(I4
tp560
tp561
I2
s((I101
tp562
(I106
tp563
tp564
I1
s((I106
tp565
(I122
tp566
tp567
I2
s((I106
tp568
(I123
tp569
tp570
I2
s((I106
tp571
(I120
tp572
tp573
I2
s((I106
tp574
(I121
tp575
tp576
I2
s((I101
tp577
(I105
tp578
tp579
I0
s((I106
tp580
(I124
tp581
tp582
I2
s((I106
tp583
(I125
tp584
tp585
I2
s((I106
tp586
(I114
tp587
tp588
I2
s((I106
tp589
(I115
tp590
tp591
I2
s((I106
tp592
(I112
tp593
tp594
I2
s((I106
tp595
(I113
tp596
tp597
I2
s((I106
tp598
(I118
tp599
tp600
I2
s((I106
tp601
(I119
tp602
tp603
I2
s((I106
tp604
(I116
tp605
tp606
I2
s((I106
tp607
(I117
tp608
tp609
I2
s((I0
tp610
(I8
tp611
tp612
I2
s((I0
tp613
(I9
tp614
tp615
I2
s((I0
tp616
(I10
tp617
tp618
I2
s((I0
tp619
(I11
tp620
tp621
I2
s((I0
tp622
(I12
tp623
tp624
I2
s((I0
tp625
(I13
tp626
tp627
I2
s((I0
tp628
(I14
tp629
tp630
I2
s((I0
tp631
(I15
tp632
tp633
I2
s((I101
tp634
(I111
tp635
tp636
I2
s((I0
tp637
(I1
tp638
tp639
I2
s((I101
tp640
(I109
tp641
tp642
I2
s((I0
tp643
(I3
tp644
tp645
I2
s((I101
tp646
(I107
tp647
tp648
I1
s((I0
tp649
(I5
tp650
tp651
I2
s((I0
tp652
(I6
tp653
tp654
I2
s((I0
tp655
(I7
tp656
tp657
I2
s((I101
tp658
(I119
tp659
tp660
I2
s((I101
tp661
(I118
tp662
tp663
I2
s((I101
tp664
(I117
tp665
tp666
I2
s((I101
tp667
(I116
tp668
tp669
I2
s((I101
tp670
(I115
tp671
tp672
I2
s((I101
tp673
(I114
tp674
tp675
I2
s((I101
tp676
(I113
tp677
tp678
I0
s((I101
tp679
(I112
tp680
tp681
I2
s((I0
tp682
(I16
tp683
tp684
I2
s((I0
tp685
(I17
tp686
tp687
I2
s((I0
tp688
(I18
tp689
tp690
I2
s((I0
tp691
(I19
tp692
tp693
I2
s((I0
tp694
(I20
tp695
tp696
I2
s((I0
tp697
(I21
tp698
tp699
I2
s((I101
tp700
(I121
tp701
tp702
I2
s((I101
tp703
(I120
tp704
tp705
I1
s((I101
tp706
(I125
tp707
tp708
I2
s((I9
tp709
(I19
tp710
tp711
I2
s((I9
tp712
(I18
tp713
tp714
I1
s((I9
tp715
(I17
tp716
tp717
I1
s((I9
tp718
(I16
tp719
tp720
I1
s((I9
tp721
(I21
tp722
tp723
I1
s((I9
tp724
(I20
tp725
tp726
I1
s((I101
tp727
(I123
tp728
tp729
I2
s((I101
tp730
(I122
tp731
tp732
I2
s((I9
tp733
(I11
tp734
tp735
I2
s((I9
tp736
(I10
tp737
tp738
I1
s((I9
tp739
(I15
tp740
tp741
I1
s((I9
tp742
(I14
tp743
tp744
I2
s((I9
tp745
(I13
tp746
tp747
I2
s((I9
tp748
(I12
tp749
tp750
I2
s((I18
tp751
(I19
tp752
tp753
I2
s((I18
tp754
(I20
tp755
tp756
I1
s((I18
tp757
(I21
tp758
tp759
I1
s((I124
tp760
(I125
tp761
tp762
I2
s((I101
tp763
(I104
tp764
tp765
I2
s((I119
tp766
(I121
tp767
tp768
I0
s((I119
tp769
(I120
tp770
tp771
I1
s((I119
tp772
(I123
tp773
tp774
I1
s((I119
tp775
(I122
tp776
tp777
I0
s((I119
tp778
(I125
tp779
tp780
I0
s((I119
tp781
(I124
tp782
tp783
I1
s((I12
tp784
(I13
tp785
tp786
I0
s((I12
tp787
(I14
tp788
tp789
I0
s((I12
tp790
(I15
tp791
tp792
I1
s((I12
tp793
(I20
tp794
tp795
I1
s((I12
tp796
(I21
tp797
tp798
I1
s((I12
tp799
(I16
tp800
tp801
I1
s((I12
tp802
(I17
tp803
tp804
I1
s((I12
tp805
(I18
tp806
tp807
I1
s((I12
tp808
(I19
tp809
tp810
I1
s((I118
tp811
(I124
tp812
tp813
I1
s((I118
tp814
(I125
tp815
tp816
I1
s((I118
tp817
(I122
tp818
tp819
I1
s((I118
tp820
(I123
tp821
tp822
I1
s((I118
tp823
(I120
tp824
tp825
I1
s((I118
tp826
(I121
tp827
tp828
I1
s((I118
tp829
(I119
tp830
tp831
I1
s((I113
tp832
(I123
tp833
tp834
I2
s((I113
tp835
(I122
tp836
tp837
I2
s((I113
tp838
(I121
tp839
tp840
I2
s((I113
tp841
(I120
tp842
tp843
I2
s((I113
tp844
(I125
tp845
tp846
I2
s((I113
tp847
(I124
tp848
tp849
I2
s((I113
tp850
(I115
tp851
tp852
I2
s((I113
tp853
(I114
tp854
tp855
I2
s((I113
tp856
(I119
tp857
tp858
I2
s((I113
tp859
(I118
tp860
tp861
I2
s((I113
tp862
(I117
tp863
tp864
I2
s((I113
tp865
(I116
tp866
tp867
I2
s((I104
tp868
(I112
tp869
tp870
I2
s((I104
tp871
(I113
tp872
tp873
I1
s((I104
tp874
(I114
tp875
tp876
I2
s((I104
tp877
(I115
tp878
tp879
I2
s((I104
tp880
(I116
tp881
tp882
I2
s((I104
tp883
(I117
tp884
tp885
I2
s((I104
tp886
(I118
tp887
tp888
I2
s((I104
tp889
(I119
tp890
tp891
I2
s((I104
tp892
(I120
tp893
tp894
I2
s((I104
tp895
(I121
tp896
tp897
I2
s((I104
tp898
(I122
tp899
tp900
I2
s((I104
tp901
(I123
tp902
tp903
I2
s((I104
tp904
(I124
tp905
tp906
I2
s((I104
tp907
(I125
tp908
tp909
I2
s((I104
tp910
(I105
tp911
tp912
I1
s((I104
tp913
(I106
tp914
tp915
I0
s((I104
tp916
(I107
tp917
tp918
I2
s((I104
tp919
(I108
tp920
tp921
I2
s((I104
tp922
(I109
tp923
tp924
I2
s((I104
tp925
(I110
tp926
tp927
I2
s((I104
tp928
(I111
tp929
tp930
I2
s((I105
tp931
(I123
tp932
tp933
I2
s((I101
tp934
(I124
tp935
tp936
I2
s((I105
tp937
(I114
tp938
tp939
I2
s((I105
tp940
(I113
tp941
tp942
I1
s((I105
tp943
(I112
tp944
tp945
I2
s((I7
tp946
(I17
tp947
tp948
I1
s((I7
tp949
(I16
tp950
tp951
I2
s((I7
tp952
(I19
tp953
tp954
I2
s((I7
tp955
(I18
tp956
tp957
I1
s((I7
tp958
(I21
tp959
tp960
I1
s((I7
tp961
(I20
tp962
tp963
I1
s((I7
tp964
(I9
tp965
tp966
I2
s((I7
tp967
(I8
tp968
tp969
I1
s((I7
tp970
(I11
tp971
tp972
I2
s((I7
tp973
(I10
tp974
tp975
I1
s((I7
tp976
(I13
tp977
tp978
I2
s((I7
tp979
(I12
tp980
tp981
I2
s((I7
tp982
(I15
tp983
tp984
I1
s((I105
tp985
(I122
tp986
tp987
I2
s((I105
tp988
(I121
tp989
tp990
I2
s((I114
tp991
(I115
tp992
tp993
I2
s((I105
tp994
(I120
tp995
tp996
I2
s((I114
tp997
(I118
tp998
tp999
I2
s((I114
tp1000
(I119
tp1001
tp1002
I0
s((I114
tp1003
(I116
tp1004
tp1005
I2
s((I114
tp1006
(I117
tp1007
tp1008
I2
s((I114
tp1009
(I122
tp1010
tp1011
I1
s((I114
tp1012
(I123
tp1013
tp1014
I1
s((I114
tp1015
(I120
tp1016
tp1017
I1
s((I114
tp1018
(I121
tp1019
tp1020
I2
s((I114
tp1021
(I124
tp1022
tp1023
I0
s((I114
tp1024
(I125
tp1025
tp1026
I0
s((I105
tp1027
(I125
tp1028
tp1029
I2
s((I105
tp1030
(I124
tp1031
tp1032
I2
s((I8
tp1033
(I16
tp1034
tp1035
I0
s((I8
tp1036
(I17
tp1037
tp1038
I0
s((I8
tp1039
(I18
tp1040
tp1041
I1
s((I8
tp1042
(I19
tp1043
tp1044
I0
s((I8
tp1045
(I20
tp1046
tp1047
I1
s((I8
tp1048
(I21
tp1049
tp1050
I1
s((I8
tp1051
(I9
tp1052
tp1053
I2
s((I8
tp1054
(I10
tp1055
tp1056
I1
s((I8
tp1057
(I11
tp1058
tp1059
I2
s((I8
tp1060
(I12
tp1061
tp1062
I2
s((I8
tp1063
(I13
tp1064
tp1065
I2
s((I8
tp1066
(I14
tp1067
tp1068
I2
s((I8
tp1069
(I15
tp1070
tp1071
I1
s((I109
tp1072
(I111
tp1073
tp1074
I1
s((I109
tp1075
(I110
tp1076
tp1077
I0
s((I17
tp1078
(I19
tp1079
tp1080
I2
s((I17
tp1081
(I18
tp1082
tp1083
I1
s((I17
tp1084
(I21
tp1085
tp1086
I1
s((I17
tp1087
(I20
tp1088
tp1089
I1
s((I109
tp1090
(I125
tp1091
tp1092
I0
s((I109
tp1093
(I124
tp1094
tp1095
I1
s((I109
tp1096
(I123
tp1097
tp1098
I1
s((I109
tp1099
(I122
tp1100
tp1101
I1
s((I109
tp1102
(I121
tp1103
tp1104
I1
s((I109
tp1105
(I120
tp1106
tp1107
I1
s((I109
tp1108
(I119
tp1109
tp1110
I1
s((I109
tp1111
(I118
tp1112
tp1113
I2
s((I109
tp1114
(I117
tp1115
tp1116
I2
s((I109
tp1117
(I116
tp1118
tp1119
I2
s((I109
tp1120
(I115
tp1121
tp1122
I2
s((I109
tp1123
(I114
tp1124
tp1125
I1
s((I109
tp1126
(I113
tp1127
tp1128
I1
s((I109
tp1129
(I112
tp1130
tp1131
I1
s((I100
tp1132
(I101
tp1133
tp1134
I2
s((I100
tp1135
(I102
tp1136
tp1137
I2
s((I100
tp1138
(I103
tp1139
tp1140
I2
s((I100
tp1141
(I108
tp1142
tp1143
I2
s((I100
tp1144
(I109
tp1145
tp1146
I2
s((I100
tp1147
(I110
tp1148
tp1149
I2
s((I100
tp1150
(I111
tp1151
tp1152
I2
s((I100
tp1153
(I104
tp1154
tp1155
I2
s((I100
tp1156
(I105
tp1157
tp1158
I1
s((I100
tp1159
(I106
tp1160
tp1161
I0
s((I100
tp1162
(I107
tp1163
tp1164
I2
s((I100
tp1165
(I116
tp1166
tp1167
I2
s((I100
tp1168
(I117
tp1169
tp1170
I2
s((I100
tp1171
(I118
tp1172
tp1173
I2
s((I100
tp1174
(I119
tp1175
tp1176
I2
s((I100
tp1177
(I112
tp1178
tp1179
I2
s((I100
tp1180
(I113
tp1181
tp1182
I2
s((I100
tp1183
(I114
tp1184
tp1185
I2
s((I100
tp1186
(I115
tp1187
tp1188
I2
s((I100
tp1189
(I124
tp1190
tp1191
I2
s((I100
tp1192
(I125
tp1193
tp1194
I2
s((I100
tp1195
(I120
tp1196
tp1197
I2
s((I100
tp1198
(I121
tp1199
tp1200
I2
s((I100
tp1201
(I122
tp1202
tp1203
I2
s((I100
tp1204
(I123
tp1205
tp1206
I2
s((I2
tp1207
(I3
tp1208
tp1209
I2
s((I7
tp1210
(I14
tp1211
tp1212
I2
s((I103
tp1213
(I125
tp1214
tp1215
I2
s((I103
tp1216
(I124
tp1217
tp1218
I2
s((I3
tp1219
(I13
tp1220
tp1221
I2
s((I3
tp1222
(I12
tp1223
tp1224
I2
s((I3
tp1225
(I15
tp1226
tp1227
I2
s((I3
tp1228
(I14
tp1229
tp1230
I2
s((I3
tp1231
(I9
tp1232
tp1233
I2
s((I3
tp1234
(I8
tp1235
tp1236
I2
s((I3
tp1237
(I11
tp1238
tp1239
I2
s((I3
tp1240
(I10
tp1241
tp1242
I2
s((I3
tp1243
(I5
tp1244
tp1245
I1
s((I3
tp1246
(I4
tp1247
tp1248
I2
s((I3
tp1249
(I7
tp1250
tp1251
I2
s((I3
tp1252
(I6
tp1253
tp1254
I2
s((I103
tp1255
(I113
tp1256
tp1257
I1
s((I103
tp1258
(I112
tp1259
tp1260
I2
s((I3
tp1261
(I21
tp1262
tp1263
I1
s((I3
tp1264
(I20
tp1265
tp1266
I2
s((I3
tp1267
(I17
tp1268
tp1269
I2
s((I3
tp1270
(I16
tp1271
tp1272
I2
s((I3
tp1273
(I19
tp1274
tp1275
I2
s((I3
tp1276
(I18
tp1277
tp1278
I2
s((I20
tp1279
(I21
tp1280
tp1281
I1
s((I103
tp1282
(I114
tp1283
tp1284
I2
s((I103
tp1285
(I117
tp1286
tp1287
I2
s((I2
tp1288
(I15
tp1289
tp1290
I2
s((I103
tp1291
(I119
tp1292
tp1293
I2
s((I103
tp1294
(I118
tp1295
tp1296
I2
s((I103
tp1297
(I105
tp1298
tp1299
I1
s((I103
tp1300
(I104
tp1301
tp1302
I1
s((I2
tp1303
(I16
tp1304
tp1305
I2
s((I2
tp1306
(I17
tp1307
tp1308
I2
s((I2
tp1309
(I20
tp1310
tp1311
I2
s((I2
tp1312
(I21
tp1313
tp1314
I1
s((I121
tp1315
(I123
tp1316
tp1317
I2
s((I121
tp1318
(I122
tp1319
tp1320
I2
s((I121
tp1321
(I125
tp1322
tp1323
I2
s((I121
tp1324
(I124
tp1325
tp1326
I1
s((I112
tp1327
(I120
tp1328
tp1329
I1
s((I112
tp1330
(I121
tp1331
tp1332
I2
s((I112
tp1333
(I122
tp1334
tp1335
I2
s((I112
tp1336
(I123
tp1337
tp1338
I2
s((I112
tp1339
(I124
tp1340
tp1341
I2
s((I112
tp1342
(I125
tp1343
tp1344
I2
s((I112
tp1345
(I113
tp1346
tp1347
I1
s((I112
tp1348
(I114
tp1349
tp1350
I2
s((I112
tp1351
(I115
tp1352
tp1353
I2
s((I112
tp1354
(I116
tp1355
tp1356
I2
s((I112
tp1357
(I117
tp1358
tp1359
I2
s((I112
tp1360
(I118
tp1361
tp1362
I2
s((I112
tp1363
(I119
tp1364
tp1365
I2
s((I107
tp1366
(I117
tp1367
tp1368
I2
s((I107
tp1369
(I116
tp1370
tp1371
I2
s((I107
tp1372
(I119
tp1373
tp1374
I2
s((I107
tp1375
(I118
tp1376
tp1377
I2
s((I107
tp1378
(I113
tp1379
tp1380
I1
s((I107
tp1381
(I112
tp1382
tp1383
I2
s((I107
tp1384
(I115
tp1385
tp1386
I2
s((I107
tp1387
(I114
tp1388
tp1389
I2
s((I107
tp1390
(I125
tp1391
tp1392
I2
s((I107
tp1393
(I124
tp1394
tp1395
I2
s((I6
tp1396
(I20
tp1397
tp1398
I0
s((I6
tp1399
(I21
tp1400
tp1401
I1
s((I6
tp1402
(I18
tp1403
tp1404
I1
s((I107
tp1405
(I120
tp1406
tp1407
I0
s((I6
tp1408
(I16
tp1409
tp1410
I1
s((I6
tp1411
(I17
tp1412
tp1413
I0
s((I6
tp1414
(I14
tp1415
tp1416
I2
s((I6
tp1417
(I15
tp1418
tp1419
I1
s((I6
tp1420
(I12
tp1421
tp1422
I2
s((I6
tp1423
(I13
tp1424
tp1425
I2
s((I6
tp1426
(I10
tp1427
tp1428
I1
s((I6
tp1429
(I11
tp1430
tp1431
I2
s((I6
tp1432
(I8
tp1433
tp1434
I2
s((I6
tp1435
(I9
tp1436
tp1437
I2
s((I107
tp1438
(I109
tp1439
tp1440
I2
s((I107
tp1441
(I108
tp1442
tp1443
I2
s((I107
tp1444
(I111
tp1445
tp1446
I2
s((I107
tp1447
(I110
tp1448
tp1449
I2
s((I15
tp1450
(I17
tp1451
tp1452
I2
s((I15
tp1453
(I16
tp1454
tp1455
I2
s((I15
tp1456
(I19
tp1457
tp1458
I2
s((I15
tp1459
(I18
tp1460
tp1461
I1
s((I15
tp1462
(I21
tp1463
tp1464
I1
s((I15
tp1465
(I20
tp1466
tp1467
I2
s((I16
tp1468
(I17
tp1469
tp1470
I2
s((I16
tp1471
(I18
tp1472
tp1473
I1
s((I16
tp1474
(I19
tp1475
tp1476
I0
s((I16
tp1477
(I20
tp1478
tp1479
I1
s((I16
tp1480
(I21
tp1481
tp1482
I1
s((I122
tp1483
(I123
tp1484
tp1485
I1
s((I122
tp1486
(I124
tp1487
tp1488
I1
s((I122
tp1489
(I125
tp1490
tp1491
I2
s((I117
tp1492
(I119
tp1493
tp1494
I1
s((I117
tp1495
(I118
tp1496
tp1497
I0
s((I117
tp1498
(I125
tp1499
tp1500
I1
s((I117
tp1501
(I124
tp1502
tp1503
I1
s((I117
tp1504
(I123
tp1505
tp1506
I1
s((I117
tp1507
(I122
tp1508
tp1509
I1
s((I117
tp1510
(I121
tp1511
tp1512
I1
s((I117
tp1513
(I120
tp1514
tp1515
I1
s((I108
tp1516
(I109
tp1517
tp1518
I1
s((I108
tp1519
(I110
tp1520
tp1521
I2
s((I108
tp1522
(I111
tp1523
tp1524
I1
s((I108
tp1525
(I124
tp1526
tp1527
I0
s((I108
tp1528
(I125
tp1529
tp1530
I0
s((I108
tp1531
(I120
tp1532
tp1533
I1
s((I108
tp1534
(I121
tp1535
tp1536
I2
s((I108
tp1537
(I122
tp1538
tp1539
I1
s((I108
tp1540
(I123
tp1541
tp1542
I1
s((I108
tp1543
(I116
tp1544
tp1545
I2
s((I108
tp1546
(I117
tp1547
tp1548
I2
s((I108
tp1549
(I118
tp1550
tp1551
I2
s((I108
tp1552
(I119
tp1553
tp1554
I1
s((I108
tp1555
(I112
tp1556
tp1557
I1
s((I108
tp1558
(I113
tp1559
tp1560
I1
s((I108
tp1561
(I114
tp1562
tp1563
I1
s((I108
tp1564
(I115
tp1565
tp1566
I2
s((I103
tp1567
(I121
tp1568
tp1569
I2
s((I103
tp1570
(I120
tp1571
tp1572
I1
s((I103
tp1573
(I123
tp1574
tp1575
I2
s((I103
tp1576
(I122
tp1577
tp1578
I2
s((I2
tp1579
(I6
tp1580
tp1581
I2
s((I2
tp1582
(I7
tp1583
tp1584
I2
s((I2
tp1585
(I4
tp1586
tp1587
I2
s((I2
tp1588
(I5
tp1589
tp1590
I2
s((I2
tp1591
(I10
tp1592
tp1593
I2
s((I2
tp1594
(I11
tp1595
tp1596
I2
s((I103
tp1597
(I115
tp1598
tp1599
I2
s((I2
tp1600
(I9
tp1601
tp1602
I2
s((I2
tp1603
(I14
tp1604
tp1605
I2
s((I103
tp1606
(I116
tp1607
tp1608
I2
s((I2
tp1609
(I12
tp1610
tp1611
I2
s((I2
tp1612
(I13
tp1613
tp1614
I2
s((I2
tp1615
(I18
tp1616
tp1617
I2
s((I2
tp1618
(I19
tp1619
tp1620
I2
s((I103
tp1621
(I107
tp1622
tp1623
I2
s((I103
tp1624
(I106
tp1625
tp1626
I1
s((I103
tp1627
(I109
tp1628
tp1629
I2
s((I103
tp1630
(I108
tp1631
tp1632
I2
s((I103
tp1633
(I111
tp1634
tp1635
I2
s((I103
tp1636
(I110
tp1637
tp1638
I2
s((I11
tp1639
(I21
tp1640
tp1641
I1
s((I11
tp1642
(I20
tp1643
tp1644
I1
s((I11
tp1645
(I17
tp1646
tp1647
I1
s((I11
tp1648
(I16
tp1649
tp1650
I1
s((I11
tp1651
(I19
tp1652
tp1653
I1
s((I11
tp1654
(I18
tp1655
tp1656
I1
s((I11
tp1657
(I13
tp1658
tp1659
I0
s((I11
tp1660
(I12
tp1661
tp1662
I0
s((I11
tp1663
(I15
tp1664
tp1665
I1
s((I11
tp1666
(I14
tp1667
tp1668
I0
s.