(dp0
((I1
tp1
(I2
tp2
tp3
I2
s((I1
tp4
(I14
tp5
tp6
I2
s((I4
tp7
(I15
tp8
tp9
I2
s((I116
tp10
(I118
tp11
tp12
I0
s((I7
tp13
(I16
tp14
tp15
I2
s((I0
tp16
(I2
tp17
tp18
I2
s((I109
tp19
(I125
tp20
tp21
I0
s((I102
tp22
(I105
tp23
tp24
I1
s((I107
tp25
(I109
tp26
tp27
I2
s((I3
tp28
(I4
tp29
tp30
I2
s((I6
tp31
(I15
tp32
tp33
I1
s((I106
tp34
(I125
tp35
tp36
I2
s((I12
tp37
(I17
tp38
tp39
I1
s((I103
tp40
(I109
tp41
tp42
I2
s((I14
tp43
(I15
tp44
tp45
I1
s((I0
tp46
(I15
tp47
tp48
I2
s((I16
tp49
(I18
tp50
tp51
I1
s((I10
tp52
(I12
tp53
tp54
I2
s((I3
tp55
(I14
tp56
tp57
I2
s((I113
tp58
(I115
tp59
tp60
I2
s((I0
tp61
(I13
tp62
tp63
I2
s((I101
tp64
(I105
tp65
tp66
I0
s((I109
tp67
(I122
tp68
tp69
I1
s((I101
tp70
(I110
tp71
tp72
I2
s((I9
tp73
(I11
tp74
tp75
I2
s((I111
tp76
(I115
tp77
tp78
I2
s((I6
tp79
(I9
tp80
tp81
I2
s((I105
tp82
(I115
tp83
tp84
I2
s((I106
tp85
(I112
tp86
tp87
I2
s((I101
tp88
(I117
tp89
tp90
I2
s((I117
tp91
(I122
tp92
tp93
I1
s((I115
tp94
(I119
tp95
tp96
I1
s((I109
tp97
(I118
tp98
tp99
I2
s((I120
tp100
(I123
tp101
tp102
I2
s((I105
tp103
(I106
tp104
tp105
I1
s((I105
tp106
(I116
tp107
tp108
I2
s((I103
tp109
(I115
tp110
tp111
I2
s((I3
tp112
(I13
tp113
tp114
I2
s((I104
tp115
(I113
tp116
tp117
I1
s((I102
tp118
(I118
tp119
tp120
I2
s((I107
tp121
(I119
tp122
tp123
I2
s((I7
tp124
(I17
tp125
tp126
I1
s((I117
tp127
(I118
tp128
tp129
I0
s((I104
tp130
(I123
tp131
tp132
I2
s((I108
tp133
(I125
tp134
tp135
I0
s((I2
tp136
(I4
tp137
tp138
I2
s((I9
tp139
(I16
tp140
tp141
I1
s((I2
tp142
(I6
tp143
tp144
I2
s((I5
tp145
(I13
tp146
tp147
I2
s((I6
tp148
(I14
tp149
tp150
I2
s((I121
tp151
(I125
tp152
tp153
I2
s((I106
tp154
(I113
tp155
tp156
I2
s((I15
tp157
(I20
tp158
tp159
I2
s((I100
tp160
(I123
tp161
tp162
I2
s((I114
tp163
(I119
tp164
tp165
I0
s((I105
tp166
(I119
tp167
tp168
I2
s((I6
tp169
(I7
tp170
tp171
I2
s((I102
tp172
(I107
tp173
tp174
I1
s((I110
tp175
(I125
tp176
tp177
I1
s((I108
tp178
(I121
tp179
tp180
I2
s((I109
tp181
(I117
tp182
tp183
I2
s((I11
tp184
(I14
tp185
tp186
I0
s((I2
tp187
(I8
tp188
tp189
I2
s((I2
tp190
(I10
tp191
tp192
I2
s((I12
tp193
(I13
tp194
tp195
I0
s((I3
tp196
(I12
tp197
tp198
I2
s((I105
tp199
(I110
tp200
tp201
I2
s((I111
tp202
(I122
tp203
tp204
I2
s((I114
tp205
(I123
tp206
tp207
I1
s((I6
tp208
(I12
tp209
tp210
I2
s((I105
tp211
(I112
tp212
tp213
I2
s((I0
tp214
(I5
tp215
tp216
I2
s((I105
tp217
(I111
tp218
tp219
I2
s((I124
tp220
(I125
tp221
tp222
I2
s((I118
tp223
(I120
tp224
tp225
I1
s((I5
tp226
(I20
tp227
tp228
I2
s((I110
tp229
(I123
tp230
tp231
I1
s((I15
tp232
(I16
tp233
tp234
I2
s((I109
tp235
(I114
tp236
tp237
I1
s((I115
tp238
(I116
tp239
tp240
I0
s((I1
tp241
(I5
tp242
tp243
I2
s((I5
tp244
(I7
tp245
tp246
I2
s((I101
tp247
(I118
tp248
tp249
I2
s((I115
tp250
(I117
tp251
tp252
I0
s((I17
tp253
(I21
tp254
tp255
I1
s((I20
tp256
(I21
tp257
tp258
I1
s((I110
tp259
(I120
tp260
tp261
I1
s((I0
tp262
(I7
tp263
tp264
I2
s((I11
tp265
(I13
tp266
tp267
I0
s((I109
tp268
(I110
tp269
tp270
I0
s((I0
tp271
(I8
tp272
tp273
I2
s((I2
tp274
(I19
tp275
tp276
I2
s((I7
tp277
(I18
tp278
tp279
I1
s((I1
tp280
(I12
tp281
tp282
I2
s((I107
tp283
(I112
tp284
tp285
I2
s((I102
tp286
(I103
tp287
tp288
I1
s((I9
tp289
(I17
tp290
tp291
I1
s((I3
tp292
(I21
tp293
tp294
I1
s((I4
tp295
(I12
tp296
tp297
I2
s((I102
tp298
(I120
tp299
tp300
I0
s((I108
tp301
(I115
tp302
tp303
I2
s((I106
tp304
(I110
tp305
tp306
I2
s((I9
tp307
(I18
tp308
tp309
I1
s((I113
tp310
(I118
tp311
tp312
I2
s((I110
tp313
(I117
tp314
tp315
I2
s((I5
tp316
(I6
tp317
tp318
I2
s((I8
tp319
(I18
tp320
tp321
I1
s((I5
tp322
(I8
tp323
tp324
I2
s((I3
tp325
(I9
tp326
tp327
I2
s((I8
tp328
(I12
tp329
tp330
I2
s((I104
tp331
(I110
tp332
tp333
I2
s((I100
tp334
(I115
tp335
tp336
I2
s((I103
tp337
(I106
tp338
tp339
I1
s((I104
tp340
(I120
tp341
tp342
I2
s((I111
tp343
(I119
tp344
tp345
I2
s((I0
tp346
(I9
tp347
tp348
I2
s((I101
tp349
(I108
tp350
tp351
I2
s((I110
tp352
(I122
tp353
tp354
I1
s((I3
tp355
(I20
tp356
tp357
I2
s((I100
tp358
(I106
tp359
tp360
I0
s((I15
tp361
(I21
tp362
tp363
I1
s((I114
tp364
(I115
tp365
tp366
I2
s((I103
tp367
(I119
tp368
tp369
I2
s((I106
tp370
(I124
tp371
tp372
I2
s((I107
tp373
(I122
tp374
tp375
I2
s((I118
tp376
(I122
tp377
tp378
I1
s((I19
tp379
(I20
tp380
tp381
I1
s((I115
tp382
(I121
tp383
tp384
I1
s((I7
tp385
(I19
tp386
tp387
I2
s((I113
tp388
(I120
tp389
tp390
I2
s((I100
tp391
(I121
tp392
tp393
I2
s((I8
tp394
(I21
tp395
tp396
I1
s((I114
tp397
(I124
tp398
tp399
I0
s((I105
tp400
(I109
tp401
tp402
I2
s((I115
tp403
(I122
tp404
tp405
I1
s((I16
tp406
(I17
tp407
tp408
I2
s((I118
tp409
(I121
tp410
tp411
I1
s((I9
tp412
(I19
tp413
tp414
I2
s((I13
tp415
(I14
tp416
tp417
I0
s((I100
tp418
(I111
tp419
tp420
I2
s((I107
tp421
(I124
tp422
tp423
I2
s((I122
tp424
(I124
tp425
tp426
I1
s((I4
tp427
(I10
tp428
tp429
I2
s((I1
tp430
(I19
tp431
tp432
I2
s((I106
tp433
(I111
tp434
tp435
I2
s((I0
tp436
(I11
tp437
tp438
I2
s((I110
tp439
(I113
tp440
tp441
I1
s((I119
tp442
(I121
tp443
tp444
I0
s((I108
tp445
(I111
tp446
tp447
I1
s((I2
tp448
(I20
tp449
tp450
I2
s((I115
tp451
(I124
tp452
tp453
I1
s((I104
tp454
(I118
tp455
tp456
I2
s((I109
tp457
(I111
tp458
tp459
I1
s((I8
tp460
(I11
tp461
tp462
I2
s((I106
tp463
(I114
tp464
tp465
I2
s((I0
tp466
(I1
tp467
tp468
I2
s((I101
tp469
(I116
tp470
tp471
I2
s((I7
tp472
(I8
tp473
tp474
I1
s((I123
tp475
(I125
tp476
tp477
I2
s((I123
tp478
(I124
tp479
tp480
I1
s((I112
tp481
(I116
tp482
tp483
I2
s((I101
tp484
(I103
tp485
tp486
I2
s((I105
tp487
(I125
tp488
tp489
I2
s((I112
tp490
(I113
tp491
tp492
I1
s((I103
tp493
(I113
tp494
tp495
I1
s((I7
tp496
(I15
tp497
tp498
I1
s((I17
tp499
(I20
tp500
tp501
I1
s((I108
tp502
(I123
tp503
tp504
I1
s((I121
tp505
(I122
tp506
tp507
I2
s((I107
tp508
(I114
tp509
tp510
I2
s((I109
tp511
(I123
tp512
tp513
I1
s((I4
tp514
(I13
tp515
tp516
I2
s((I102
tp517
(I112
tp518
tp519
I2
s((I106
tp520
(I115
tp521
tp522
I2
s((I114
tp523
(I116
tp524
tp525
I2
s((I6
tp526
(I19
tp527
tp528
I2
s((I1
tp529
(I6
tp530
tp531
I2
s((I19
tp532
(I21
tp533
tp534
I1
s((I3
tp535
(I10
tp536
tp537
I2
s((I113
tp538
(I119
tp539
tp540
I2
s((I4
tp541
(I16
tp542
tp543
I2
s((I118
tp544
(I123
tp545
tp546
I1
s((I100
tp547
(I103
tp548
tp549
I2
s((I109
tp550
(I119
tp551
tp552
I1
s((I107
tp553
(I116
tp554
tp555
I2
s((I102
tp556
(I117
tp557
tp558
I2
s((I106
tp559
(I117
tp560
tp561
I2
s((I114
tp562
(I120
tp563
tp564
I1
s((I10
tp565
(I18
tp566
tp567
I1
s((I17
tp568
(I19
tp569
tp570
I2
s((I9
tp571
(I10
tp572
tp573
I1
s((I104
tp574
(I121
tp575
tp576
I2
s((I104
tp577
(I116
tp578
tp579
I2
s((I101
tp580
(I120
tp581
tp582
I1
s((I111
tp583
(I120
tp584
tp585
I1
s((I7
tp586
(I9
tp587
tp588
I2
s((I5
tp589
(I19
tp590
tp591
I2
s((I108
tp592
(I109
tp593
tp594
I1
s((I2
tp595
(I5
tp596
tp597
I2
s((I106
tp598
(I120
tp599
tp600
I2
s((I101
tp601
(I107
tp602
tp603
I1
s((I18
tp604
(I19
tp605
tp606
I2
s((I113
tp607
(I121
tp608
tp609
I2
s((I112
tp610
(I119
tp611
tp612
I2
s((I104
tp613
(I106
tp614
tp615
I0
s((I12
tp616
(I20
tp617
tp618
I1
s((I103
tp619
(I124
tp620
tp621
I2
s((I100
tp622
(I107
tp623
tp624
I2
s((I101
tp625
(I124
tp626
tp627
I2
s((I1
tp628
(I18
tp629
tp630
I2
s((I3
tp631
(I19
tp632
tp633
I2
s((I101
tp634
(I111
tp635
tp636
I2
s((I0
tp637
(I18
tp638
tp639
I2
s((I16
tp640
(I19
tp641
tp642
I0
s((I10
tp643
(I19
tp644
tp645
I2
s((I119
tp646
(I122
tp647
tp648
I0
s((I111
tp649
(I124
tp650
tp651
I0
s((I112
tp652
(I115
tp653
tp654
I2
s((I102
tp655
(I114
tp656
tp657
I2
s((I0
tp658
(I21
tp659
tp660
I2
s((I110
tp661
(I119
tp662
tp663
I1
s((I2
tp664
(I14
tp665
tp666
I2
s((I13
tp667
(I16
tp668
tp669
I1
s((I8
tp670
(I19
tp671
tp672
I0
s((I109
tp673
(I115
tp674
tp675
I2
s((I5
tp676
(I10
tp677
tp678
I2
s((I12
tp679
(I19
tp680
tp681
I1
s((I1
tp682
(I21
tp683
tp684
I1
s((I11
tp685
(I16
tp686
tp687
I1
s((I3
tp688
(I8
tp689
tp690
I2
s((I1
tp691
(I17
tp692
tp693
I2
s((I4
tp694
(I9
tp695
tp696
I2
s((I102
tp697
(I124
tp698
tp699
I2
s((I100
tp700
(I113
tp701
tp702
I2
s((I103
tp703
(I110
tp704
tp705
I2
s((I18
tp706
(I20
tp707
tp708
I1
s((I103
tp709
(I120
tp710
tp711
I1
s((I3
tp712
(I18
tp713
tp714
I2
s((I112
tp715
(I120
tp716
tp717
I1
s((I102
tp718
(I119
tp719
tp720
I2
s((I4
tp721
(I20
tp722
tp723
I2
s((I0
tp724
(I19
tp725
tp726
I2
s((I9
tp727
(I21
tp728
tp729
I1
s((I2
tp730
(I18
tp731
tp732
I2
s((I110
tp733
(I124
tp734
tp735
I1
s((I4
tp736
(I7
tp737
tp738
I2
s((I107
tp739
(I113
tp740
tp741
I1
s((I102
tp742
(I113
tp743
tp744
I1
s((I107
tp745
(I121
tp746
tp747
I2
s((I10
tp748
(I21
tp749
tp750
I1
s((I100
tp751
(I119
tp752
tp753
I2
s((I103
tp754
(I117
tp755
tp756
I2
s((I6
tp757
(I8
tp758
tp759
I2
s((I108
tp760
(I113
tp761
tp762
I1
s((I104
tp763
(I124
tp764
tp765
I2
s((I15
tp766
(I17
tp767
tp768
I2
s((I110
tp769
(I121
tp770
tp771
I1
s((I118
tp772
(I124
tp773
tp774
I1
s((I107
tp775
(I111
tp776
tp777
I2
s((I101
tp778
(I115
tp779
tp780
I2
s((I104
tp781
(I114
tp782
tp783
I2
s((I3
tp784
(I17
tp785
tp786
I2
s((I12
tp787
(I18
tp788
tp789
I1
s((I114
tp790
(I125
tp791
tp792
I0
s((I17
tp793
(I18
tp794
tp795
I1
s((I105
tp796
(I123
tp797
tp798
I2
s((I0
tp799
(I10
tp800
tp801
I2
s((I1
tp802
(I4
tp803
tp804
I2
s((I110
tp805
(I118
tp806
tp807
I2
s((I113
tp808
(I117
tp809
tp810
I2
s((I111
tp811
(I114
tp812
tp813
I1
s((I108
tp814
(I119
tp815
tp816
I1
s((I105
tp817
(I114
tp818
tp819
I2
s((I14
tp820
(I20
tp821
tp822
I1
s((I105
tp823
(I124
tp824
tp825
I2
s((I100
tp826
(I125
tp827
tp828
I2
s((I100
tp829
(I122
tp830
tp831
I2
s((I4
tp832
(I8
tp833
tp834
I2
s((I107
tp835
(I123
tp836
tp837
I2
s((I16
tp838
(I20
tp839
tp840
I1
s((I110
tp841
(I115
tp842
tp843
I2
s((I10
tp844
(I16
tp845
tp846
I2
s((I3
tp847
(I16
tp848
tp849
I2
s((I113
tp850
(I124
tp851
tp852
I2
s((I119
tp853
(I120
tp854
tp855
I1
s((I6
tp856
(I16
tp857
tp858
I1
s((I111
tp859
(I113
tp860
tp861
I1
s((I6
tp862
(I11
tp863
tp864
I2
s((I116
tp865
(I123
tp866
tp867
I1
s((I102
tp868
(I115
tp869
tp870
I2
s((I13
tp871
(I17
tp872
tp873
I1
s((I9
tp874
(I13
tp875
tp876
I2
s((I101
tp877
(I106
tp878
tp879
I1
s((I109
tp880
(I124
tp881
tp882
I1
s((I121
tp883
(I124
tp884
tp885
I1
s((I117
tp886
(I123
tp887
tp888
I1
s((I116
tp889
(I125
tp890
tp891
I1
s((I1
tp892
(I16
tp893
tp894
I2
s((I107
tp895
(I108
tp896
tp897
I2
s((I108
tp898
(I116
tp899
tp900
I2
s((I105
tp901
(I118
tp902
tp903
I2
s((I4
tp904
(I6
tp905
tp906
I2
s((I8
tp907
(I15
tp908
tp909
I1
s((I112
tp910
(I114
tp911
tp912
I2
s((I10
tp913
(I17
tp914
tp915
I0
s((I119
tp916
(I124
tp917
tp918
I1
s((I104
tp919
(I112
tp920
tp921
I2
s((I117
tp922
(I124
tp923
tp924
I1
s((I0
tp925
(I4
tp926
tp927
I2
s((I3
tp928
(I11
tp929
tp930
I2
s((I2
tp931
(I21
tp932
tp933
I1
s((I117
tp934
(I119
tp935
tp936
I1
s((I101
tp937
(I123
tp938
tp939
I2
s((I103
tp940
(I122
tp941
tp942
I2
s((I104
tp943
(I122
tp944
tp945
I2
s((I103
tp946
(I104
tp947
tp948
I1
s((I7
tp949
(I20
tp950
tp951
I1
s((I14
tp952
(I19
tp953
tp954
I1
s((I104
tp955
(I108
tp956
tp957
I2
s((I11
tp958
(I21
tp959
tp960
I1
s((I11
tp961
(I20
tp962
tp963
I1
s((I7
tp964
(I10
tp965
tp966
I1
s((I100
tp967
(I101
tp968
tp969
I2
s((I122
tp970
(I125
tp971
tp972
I2
s((I110
tp973
(I114
tp974
tp975
I1
s((I106
tp976
(I119
tp977
tp978
I2
s((I114
tp979
(I121
tp980
tp981
I2
s((I102
tp982
(I111
tp983
tp984
I2
s((I100
tp985
(I114
tp986
tp987
I2
s((I15
tp988
(I18
tp989
tp990
I1
s((I1
tp991
(I15
tp992
tp993
I2
s((I13
tp994
(I21
tp995
tp996
I1
s((I1
tp997
(I11
tp998
tp999
I2
s((I104
tp1000
(I109
tp1001
tp1002
I2
s((I107
tp1003
(I115
tp1004
tp1005
I2
s((I107
tp1006
(I118
tp1007
tp1008
I2
s((I104
tp1009
(I119
tp1010
tp1011
I2
s((I102
tp1012
(I108
tp1013
tp1014
I2
s((I13
tp1015
(I19
tp1016
tp1017
I1
s((I110
tp1018
(I111
tp1019
tp1020
I1
s((I4
tp1021
(I19
tp1022
tp1023
I2
s((I112
tp1024
(I117
tp1025
tp1026
I2
s((I6
tp1027
(I20
tp1028
tp1029
I0
s((I111
tp1030
(I121
tp1031
tp1032
I1
s((I100
tp1033
(I105
tp1034
tp1035
I1
s((I100
tp1036
(I118
tp1037
tp1038
I2
s((I105
tp1039
(I113
tp1040
tp1041
I1
s((I115
tp1042
(I118
tp1043
tp1044
I0
s((I101
tp1045
(I113
tp1046
tp1047
I0
s((I10
tp1048
(I11
tp1049
tp1050
I2
s((I109
tp1051
(I116
tp1052
tp1053
I2
s((I120
tp1054
(I124
tp1055
tp1056
I2
s((I120
tp1057
(I125
tp1058
tp1059
I2
s((I11
tp1060
(I19
tp1061
tp1062
I1
s((I0
tp1063
(I16
tp1064
tp1065
I2
s((I1
tp1066
(I3
tp1067
tp1068
I2
s((I106
tp1069
(I116
tp1070
tp1071
I2
s((I14
tp1072
(I18
tp1073
tp1074
I1
s((I8
tp1075
(I16
tp1076
tp1077
I0
s((I5
tp1078
(I12
tp1079
tp1080
I2
s((I9
tp1081
(I20
tp1082
tp1083
I1
s((I5
tp1084
(I9
tp1085
tp1086
I2
s((I106
tp1087
(I107
tp1088
tp1089
I2
s((I100
tp1090
(I124
tp1091
tp1092
I2
s((I103
tp1093
(I108
tp1094
tp1095
I2
s((I114
tp1096
(I117
tp1097
tp1098
I2
s((I105
tp1099
(I107
tp1100
tp1101
I2
s((I105
tp1102
(I117
tp1103
tp1104
I2
s((I111
tp1105
(I117
tp1106
tp1107
I2
s((I113
tp1108
(I114
tp1109
tp1110
I2
s((I11
tp1111
(I18
tp1112
tp1113
I1
s((I0
tp1114
(I17
tp1115
tp1116
I2
s((I117
tp1117
(I121
tp1118
tp1119
I1
s((I3
tp1120
(I7
tp1121
tp1122
I2
s((I102
tp1123
(I121
tp1124
tp1125
I0
s((I113
tp1126
(I125
tp1127
tp1128
I2
s((I105
tp1129
(I108
tp1130
tp1131
I2
s((I108
tp1132
(I124
tp1133
tp1134
I0
s((I100
tp1135
(I117
tp1136
tp1137
I2
s((I4
tp1138
(I18
tp1139
tp1140
I2
s((I104
tp1141
(I117
tp1142
tp1143
I2
s((I102
tp1144
(I110
tp1145
tp1146
I2
s((I11
tp1147
(I15
tp1148
tp1149
I1
s((I107
tp1150
(I110
tp1151
tp1152
I2
s((I113
tp1153
(I123
tp1154
tp1155
I2
s((I5
tp1156
(I16
tp1157
tp1158
I2
s((I109
tp1159
(I112
tp1160
tp1161
I1
s((I113
tp1162
(I122
tp1163
tp1164
I2
s((I2
tp1165
(I13
tp1166
tp1167
I2
s((I2
tp1168
(I15
tp1169
tp1170
I2
s((I8
tp1171
(I10
tp1172
tp1173
I1
s((I116
tp1174
(I124
tp1175
tp1176
I1
s((I101
tp1177
(I114
tp1178
tp1179
I2
s((I5
tp1180
(I21
tp1181
tp1182
I1
s((I103
tp1183
(I114
tp1184
tp1185
I2
s((I100
tp1186
(I110
tp1187
tp1188
I2
s((I9
tp1189
(I15
tp1190
tp1191
I1
s((I111
tp1192
(I123
tp1193
tp1194
I0
s((I1
tp1195
(I10
tp1196
tp1197
I2
s((I103
tp1198
(I105
tp1199
tp1200
I1
s((I115
tp1201
(I123
tp1202
tp1203
I1
s((I8
tp1204
(I20
tp1205
tp1206
I1
s((I10
tp1207
(I15
tp1208
tp1209
I2
s((I2
tp1210
(I17
tp1211
tp1212
I2
s((I14
tp1213
(I17
tp1214
tp1215
I1
s((I116
tp1216
(I117
tp1217
tp1218
I0
s((I103
tp1219
(I111
tp1220
tp1221
I2
s((I112
tp1222
(I121
tp1223
tp1224
I2
s((I6
tp1225
(I18
tp1226
tp1227
I1
s((I15
tp1228
(I19
tp1229
tp1230
I2
s((I1
tp1231
(I9
tp1232
tp1233
I2
s((I5
tp1234
(I15
tp1235
tp1236
I2
s((I4
tp1237
(I21
tp1238
tp1239
I1
s((I115
tp1240
(I125
tp1241
tp1242
I1
s((I100
tp1243
(I116
tp1244
tp1245
I2
s((I111
tp1246
(I125
tp1247
tp1248
I2
s((I6
tp1249
(I13
tp1250
tp1251
I2
s((I101
tp1252
(I104
tp1253
tp1254
I2
s((I108
tp1255
(I114
tp1256
tp1257
I1
s((I3
tp1258
(I15
tp1259
tp1260
I2
s((I12
tp1261
(I21
tp1262
tp1263
I1
s((I8
tp1264
(I14
tp1265
tp1266
I2
s((I107
tp1267
(I125
tp1268
tp1269
I2
s((I102
tp1270
(I125
tp1271
tp1272
I2
s((I111
tp1273
(I116
tp1274
tp1275
I2
s((I112
tp1276
(I124
tp1277
tp1278
I2
s((I106
tp1279
(I109
tp1280
tp1281
I2
s((I103
tp1282
(I125
tp1283
tp1284
I2
s((I100
tp1285
(I109
tp1286
tp1287
I2
s((I103
tp1288
(I107
tp1289
tp1290
I2
s((I106
tp1291
(I118
tp1292
tp1293
I2
s((I104
tp1294
(I125
tp1295
tp1296
I2
s((I5
tp1297
(I17
tp1298
tp1299
I2
s((I14
tp1300
(I21
tp1301
tp1302
I1
s((I115
tp1303
(I120
tp1304
tp1305
I1
s((I0
tp1306
(I14
tp1307
tp1308
I2
s((I101
tp1309
(I102
tp1310
tp1311
I2
s((I101
tp1312
(I122
tp1313
tp1314
I2
s((I119
tp1315
(I123
tp1316
tp1317
I1
s((I14
tp1318
(I16
tp1319
tp1320
I1
s((I106
tp1321
(I121
tp1322
tp1323
I2
s((I107
tp1324
(I120
tp1325
tp1326
I0
s((I118
tp1327
(I125
tp1328
tp1329
I1
s((I110
tp1330
(I116
tp1331
tp1332
I2
s((I100
tp1333
(I112
tp1334
tp1335
I2
s((I103
tp1336
(I121
tp1337
tp1338
I2
s((I0
tp1339
(I3
tp1340
tp1341
I2
s((I102
tp1342
(I122
tp1343
tp1344
I2
s((I10
tp1345
(I20
tp1346
tp1347
I2
s((I16
tp1348
(I21
tp1349
tp1350
I1
s((I7
tp1351
(I21
tp1352
tp1353
I1
s((I116
tp1354
(I121
tp1355
tp1356
I1
s((I1
tp1357
(I13
tp1358
tp1359
I2
s((I9
tp1360
(I12
tp1361
tp1362
I2
s((I13
tp1363
(I18
tp1364
tp1365
I1
s((I108
tp1366
(I112
tp1367
tp1368
I1
s((I4
tp1369
(I17
tp1370
tp1371
I2
s((I105
tp1372
(I121
tp1373
tp1374
I2
s((I103
tp1375
(I118
tp1376
tp1377
I2
s((I122
tp1378
(I123
tp1379
tp1380
I1
s((I112
tp1381
(I118
tp1382
tp1383
I2
s((I8
tp1384
(I13
tp1385
tp1386
I2
s((I101
tp1387
(I112
tp1388
tp1389
I2
s((I7
tp1390
(I12
tp1391
tp1392
I2
s((I18
tp1393
(I21
tp1394
tp1395
I1
s((I118
tp1396
(I119
tp1397
tp1398
I1
s((I120
tp1399
(I122
tp1400
tp1401
I2
s((I2
tp1402
(I9
tp1403
tp1404
I2
s((I11
tp1405
(I17
tp1406
tp1407
I1
s((I2
tp1408
(I11
tp1409
tp1410
I2
s((I1
tp1411
(I8
tp1412
tp1413
I2
s((I13
tp1414
(I15
tp1415
tp1416
I1
s((I1
tp1417
(I20
tp1418
tp1419
I2
s((I111
tp1420
(I118
tp1421
tp1422
I2
s((I10
tp1423
(I13
tp1424
tp1425
I2
s((I101
tp1426
(I125
tp1427
tp1428
I2
s((I116
tp1429
(I119
tp1430
tp1431
I1
s((I112
tp1432
(I123
tp1433
tp1434
I2
s((I108
tp1435
(I110
tp1436
tp1437
I2
s((I8
tp1438
(I17
tp1439
tp1440
I0
s((I0
tp1441
(I6
tp1442
tp1443
I2
s((I5
tp1444
(I14
tp1445
tp1446
I2
s((I109
tp1447
(I121
tp1448
tp1449
I1
s((I12
tp1450
(I15
tp1451
tp1452
I1
s((I103
tp1453
(I123
tp1454
tp1455
I2
s((I113
tp1456
(I116
tp1457
tp1458
I2
s((I5
tp1459
(I11
tp1460
tp1461
I2
s((I3
tp1462
(I5
tp1463
tp1464
I1
s((I6
tp1465
(I17
tp1466
tp1467
I0
s((I114
tp1468
(I118
tp1469
tp1470
I2
s((I100
tp1471
(I102
tp1472
tp1473
I2
s((I6
tp1474
(I21
tp1475
tp1476
I1
s((I106
tp1477
(I122
tp1478
tp1479
I2
s((I120
tp1480
(I121
tp1481
tp1482
I2
s((I108
tp1483
(I122
tp1484
tp1485
I1
s((I121
tp1486
(I123
tp1487
tp1488
I2
s((I101
tp1489
(I121
tp1490
tp1491
I2
s((I8
tp1492
(I9
tp1493
tp1494
I2
s((I10
tp1495
(I14
tp1496
tp1497
I2
s((I105
tp1498
(I122
tp1499
tp1500
I2
s((I114
tp1501
(I122
tp1502
tp1503
I1
s((I6
tp1504
(I10
tp1505
tp1506
I1
s((I9
tp1507
(I14
tp1508
tp1509
I2
s((I116
tp1510
(I122
tp1511
tp1512
I1
s((I5
tp1513
(I18
tp1514
tp1515
I2
s((I7
tp1516
(I13
tp1517
tp1518
I2
s((I0
tp1519
(I20
tp1520
tp1521
I2
s((I104
tp1522
(I107
tp1523
tp1524
I2
s((I4
tp1525
(I5
tp1526
tp1527
I1
s((I102
tp1528
(I104
tp1529
tp1530
I2
s((I101
tp1531
(I119
tp1532
tp1533
I2
s((I106
tp1534
(I123
tp1535
tp1536
I2
s((I12
tp1537
(I16
tp1538
tp1539
I1
s((I103
tp1540
(I112
tp1541
tp1542
I2
s((I100
tp1543
(I108
tp1544
tp1545
I2
s((I12
tp1546
(I14
tp1547
tp1548
I0
s((I119
tp1549
(I125
tp1550
tp1551
I0
s((I102
tp1552
(I123
tp1553
tp1554
I2
s((I7
tp1555
(I11
tp1556
tp1557
I2
s((I102
tp1558
(I109
tp1559
tp1560
I2
s((I4
tp1561
(I11
tp1562
tp1563
I2
s((I107
tp1564
(I117
tp1565
tp1566
I2
s((I111
tp1567
(I112
tp1568
tp1569
I1
s((I104
tp1570
(I111
tp1571
tp1572
I2
s((I4
tp1573
(I14
tp1574
tp1575
I2
s((I106
tp1576
(I108
tp1577
tp1578
I2
s((I112
tp1579
(I122
tp1580
tp1581
I2
s((I117
tp1582
(I120
tp1583
tp1584
I1
s((I3
tp1585
(I6
tp1586
tp1587
I2
s((I109
tp1588
(I113
tp1589
tp1590
I1
s((I2
tp1591
(I12
tp1592
tp1593
I2
s((I116
tp1594
(I120
tp1595
tp1596
I1
s((I108
tp1597
(I117
tp1598
tp1599
I2
s((I103
tp1600
(I116
tp1601
tp1602
I2
s((I109
tp1603
(I120
tp1604
tp1605
I1
s((I101
tp1606
(I109
tp1607
tp1608
I2
s((I108
tp1609
(I120
tp1610
tp1611
I1
s((I2
tp1612
(I16
tp1613
tp1614
I2
s((I2
tp1615
(I3
tp1616
tp1617
I2
s((I2
tp1618
(I7
tp1619
tp1620
I2
s((I7
tp1621
(I14
tp1622
tp1623
I2
s((I11
tp1624
(I12
tp1625
tp1626
I0
s((I13
tp1627
(I20
tp1628
tp1629
I1
s((I100
tp1630
(I104
tp1631
tp1632
I2
s((I1
tp1633
(I7
tp1634
tp1635
I2
s((I104
tp1636
(I105
tp1637
tp1638
I1
s((I102
tp1639
(I106
tp1640
tp1641
I1
s((I100
tp1642
(I120
tp1643
tp1644
I2
s((I108
tp1645
(I118
tp1646
tp1647
I2
s((I0
tp1648
(I12
tp1649
tp1650
I2
s((I110
tp1651
(I112
tp1652
tp1653
I1
s((I104
tp1654
(I115
tp1655
tp1656
I2
s((I117
tp1657
(I125
tp1658
tp1659
I1
s((I105
tp1660
(I120
tp1661
tp1662
I2
s((I102
tp1663
(I116
tp1664
tp1665
I2
s((I112
tp1666
(I125
tp1667
tp1668
I2
s.