(dp0
((I12
tp1
(I13
tp2
tp3
I0
s((I12
tp4
(I14
tp5
tp6
I0
s((I12
tp7
(I15
tp8
tp9
I1
s((I20
tp10
(I21
tp11
tp12
I1
s((I103
tp13
(I117
tp14
tp15
I2
s((I110
tp16
(I118
tp17
tp18
I2
s((I110
tp19
(I116
tp20
tp21
I2
s((I110
tp22
(I117
tp23
tp24
I2
s((I110
tp25
(I115
tp26
tp27
I2
s((I12
tp28
(I20
tp29
tp30
I1
s((I12
tp31
(I21
tp32
tp33
I1
s((I110
tp34
(I124
tp35
tp36
I1
s((I103
tp37
(I118
tp38
tp39
I2
s((I12
tp40
(I16
tp41
tp42
I1
s((I12
tp43
(I17
tp44
tp45
I1
s((I12
tp46
(I18
tp47
tp48
I1
s((I12
tp49
(I19
tp50
tp51
I1
s((I105
tp52
(I115
tp53
tp54
I2
s((I105
tp55
(I118
tp56
tp57
I2
s((I105
tp58
(I117
tp59
tp60
I2
s((I105
tp61
(I116
tp62
tp63
I2
s((I4
tp64
(I12
tp65
tp66
I2
s((I4
tp67
(I13
tp68
tp69
I2
s((I4
tp70
(I14
tp71
tp72
I2
s((I114
tp73
(I117
tp74
tp75
I2
s((I4
tp76
(I11
tp77
tp78
I2
s((I4
tp79
(I21
tp80
tp81
I1
s((I118
tp82
(I124
tp83
tp84
I1
s((I118
tp85
(I125
tp86
tp87
I1
s((I118
tp88
(I122
tp89
tp90
I1
s((I118
tp91
(I123
tp92
tp93
I1
s((I118
tp94
(I120
tp95
tp96
I1
s((I118
tp97
(I121
tp98
tp99
I1
s((I105
tp100
(I107
tp101
tp102
I2
s((I118
tp103
(I119
tp104
tp105
I1
s((I13
tp106
(I15
tp107
tp108
I1
s((I13
tp109
(I14
tp110
tp111
I0
s((I113
tp112
(I125
tp113
tp114
I2
s((I113
tp115
(I115
tp116
tp117
I2
s((I113
tp118
(I118
tp119
tp120
I2
s((I113
tp121
(I117
tp122
tp123
I2
s((I113
tp124
(I116
tp125
tp126
I2
s((I100
tp127
(I104
tp128
tp129
I2
s((I13
tp130
(I21
tp131
tp132
I1
s((I13
tp133
(I20
tp134
tp135
I1
s((I13
tp136
(I19
tp137
tp138
I1
s((I13
tp139
(I18
tp140
tp141
I1
s((I13
tp142
(I17
tp143
tp144
I1
s((I13
tp145
(I16
tp146
tp147
I1
s((I108
tp148
(I109
tp149
tp150
I1
s((I104
tp151
(I113
tp152
tp153
I1
s((I104
tp154
(I115
tp155
tp156
I2
s((I104
tp157
(I116
tp158
tp159
I2
s((I104
tp160
(I117
tp161
tp162
I2
s((I104
tp163
(I118
tp164
tp165
I2
s((I5
tp166
(I14
tp167
tp168
I2
s((I5
tp169
(I13
tp170
tp171
I2
s((I5
tp172
(I12
tp173
tp174
I2
s((I5
tp175
(I11
tp176
tp177
I2
s((I121
tp178
(I123
tp179
tp180
I2
s((I121
tp181
(I122
tp182
tp183
I2
s((I103
tp184
(I104
tp185
tp186
I1
s((I112
tp187
(I123
tp188
tp189
I2
s((I14
tp190
(I15
tp191
tp192
I1
s((I112
tp193
(I115
tp194
tp195
I2
s((I112
tp196
(I116
tp197
tp198
I2
s((I112
tp199
(I117
tp200
tp201
I2
s((I112
tp202
(I118
tp203
tp204
I2
s((I1
tp205
(I6
tp206
tp207
I2
s((I14
tp208
(I20
tp209
tp210
I1
s((I14
tp211
(I21
tp212
tp213
I1
s((I14
tp214
(I18
tp215
tp216
I1
s((I14
tp217
(I19
tp218
tp219
I1
s((I14
tp220
(I16
tp221
tp222
I1
s((I14
tp223
(I17
tp224
tp225
I1
s((I107
tp226
(I117
tp227
tp228
I2
s((I107
tp229
(I116
tp230
tp231
I2
s((I107
tp232
(I119
tp233
tp234
I2
s((I107
tp235
(I118
tp236
tp237
I2
s((I107
tp238
(I115
tp239
tp240
I2
s((I6
tp241
(I18
tp242
tp243
I1
s((I6
tp244
(I14
tp245
tp246
I2
s((I6
tp247
(I12
tp248
tp249
I2
s((I6
tp250
(I13
tp251
tp252
I2
s((I6
tp253
(I11
tp254
tp255
I2
s((I6
tp256
(I8
tp257
tp258
I2
s((I6
tp259
(I9
tp260
tp261
I2
s((I107
tp262
(I108
tp263
tp264
I2
s((I120
tp265
(I124
tp266
tp267
I2
s((I115
tp268
(I125
tp269
tp270
I1
s((I115
tp271
(I124
tp272
tp273
I1
s((I115
tp274
(I121
tp275
tp276
I1
s((I115
tp277
(I120
tp278
tp279
I1
s((I115
tp280
(I123
tp281
tp282
I1
s((I115
tp283
(I122
tp284
tp285
I1
s((I115
tp286
(I117
tp287
tp288
I0
s((I115
tp289
(I116
tp290
tp291
I0
s((I115
tp292
(I119
tp293
tp294
I1
s((I115
tp295
(I118
tp296
tp297
I0
s((I100
tp298
(I124
tp299
tp300
I2
s((I15
tp301
(I21
tp302
tp303
I1
s((I7
tp304
(I18
tp305
tp306
I1
s((I7
tp307
(I21
tp308
tp309
I1
s((I7
tp310
(I20
tp311
tp312
I1
s((I100
tp313
(I121
tp314
tp315
I2
s((I7
tp316
(I11
tp317
tp318
I2
s((I7
tp319
(I13
tp320
tp321
I2
s((I7
tp322
(I12
tp323
tp324
I2
s((I7
tp325
(I14
tp326
tp327
I2
s((I114
tp328
(I115
tp329
tp330
I2
s((I4
tp331
(I15
tp332
tp333
I2
s((I114
tp334
(I118
tp335
tp336
I2
s((I114
tp337
(I116
tp338
tp339
I2
s((I116
tp340
(I117
tp341
tp342
I0
s((I16
tp343
(I20
tp344
tp345
I1
s((I3
tp346
(I11
tp347
tp348
I2
s((I106
tp349
(I125
tp350
tp351
I2
s((I106
tp352
(I115
tp353
tp354
I2
s((I106
tp355
(I118
tp356
tp357
I2
s((I106
tp358
(I116
tp359
tp360
I2
s((I106
tp361
(I117
tp362
tp363
I2
s((I0
tp364
(I9
tp365
tp366
I2
s((I4
tp367
(I16
tp368
tp369
I2
s((I0
tp370
(I11
tp371
tp372
I2
s((I0
tp373
(I12
tp374
tp375
I2
s((I0
tp376
(I13
tp377
tp378
I2
s((I0
tp379
(I14
tp380
tp381
I2
s((I0
tp382
(I15
tp383
tp384
I2
s((I0
tp385
(I2
tp386
tp387
I2
s((I101
tp388
(I107
tp389
tp390
I1
s((I0
tp391
(I7
tp392
tp393
I2
s((I101
tp394
(I118
tp395
tp396
I2
s((I101
tp397
(I117
tp398
tp399
I2
s((I101
tp400
(I116
tp401
tp402
I2
s((I101
tp403
(I115
tp404
tp405
I2
s((I0
tp406
(I17
tp407
tp408
I2
s((I8
tp409
(I11
tp410
tp411
I2
s((I8
tp412
(I12
tp413
tp414
I2
s((I8
tp415
(I13
tp416
tp417
I2
s((I8
tp418
(I14
tp419
tp420
I2
s((I101
tp421
(I120
tp422
tp423
I1
s((I117
tp424
(I119
tp425
tp426
I1
s((I117
tp427
(I118
tp428
tp429
I0
s((I3
tp430
(I12
tp431
tp432
I2
s((I117
tp433
(I125
tp434
tp435
I1
s((I117
tp436
(I124
tp437
tp438
I1
s((I117
tp439
(I123
tp440
tp441
I1
s((I117
tp442
(I122
tp443
tp444
I1
s((I117
tp445
(I121
tp446
tp447
I1
s((I117
tp448
(I120
tp449
tp450
I1
s((I109
tp451
(I123
tp452
tp453
I1
s((I1
tp454
(I21
tp455
tp456
I1
s((I109
tp457
(I118
tp458
tp459
I2
s((I109
tp460
(I117
tp461
tp462
I2
s((I109
tp463
(I116
tp464
tp465
I2
s((I109
tp466
(I115
tp467
tp468
I2
s((I1
tp469
(I11
tp470
tp471
I2
s((I1
tp472
(I9
tp473
tp474
I2
s((I9
tp475
(I16
tp476
tp477
I1
s((I1
tp478
(I14
tp479
tp480
I2
s((I1
tp481
(I13
tp482
tp483
I2
s((I1
tp484
(I12
tp485
tp486
I2
s((I1
tp487
(I7
tp488
tp489
I2
s((I100
tp490
(I105
tp491
tp492
I1
s((I100
tp493
(I107
tp494
tp495
I2
s((I100
tp496
(I116
tp497
tp498
I2
s((I100
tp499
(I117
tp500
tp501
I2
s((I100
tp502
(I118
tp503
tp504
I2
s((I100
tp505
(I113
tp506
tp507
I2
s((I100
tp508
(I115
tp509
tp510
I2
s((I9
tp511
(I11
tp512
tp513
I2
s((I9
tp514
(I14
tp515
tp516
I2
s((I9
tp517
(I13
tp518
tp519
I2
s((I9
tp520
(I12
tp521
tp522
I2
s((I10
tp523
(I11
tp524
tp525
I2
s((I116
tp526
(I118
tp527
tp528
I0
s((I116
tp529
(I119
tp530
tp531
I1
s((I10
tp532
(I14
tp533
tp534
I2
s((I10
tp535
(I12
tp536
tp537
I2
s((I10
tp538
(I13
tp539
tp540
I2
s((I116
tp541
(I124
tp542
tp543
I1
s((I116
tp544
(I125
tp545
tp546
I1
s((I116
tp547
(I120
tp548
tp549
I1
s((I116
tp550
(I121
tp551
tp552
I1
s((I116
tp553
(I122
tp554
tp555
I1
s((I3
tp556
(I13
tp557
tp558
I2
s((I116
tp559
(I123
tp560
tp561
I1
s((I108
tp562
(I116
tp563
tp564
I2
s((I108
tp565
(I117
tp566
tp567
I2
s((I108
tp568
(I118
tp569
tp570
I2
s((I108
tp571
(I119
tp572
tp573
I1
s((I10
tp574
(I16
tp575
tp576
I2
s((I10
tp577
(I20
tp578
tp579
I2
s((I108
tp580
(I115
tp581
tp582
I2
s((I103
tp583
(I113
tp584
tp585
I1
s((I2
tp586
(I11
tp587
tp588
I2
s((I103
tp589
(I115
tp590
tp591
I2
s((I2
tp592
(I14
tp593
tp594
I2
s((I103
tp595
(I116
tp596
tp597
I2
s((I2
tp598
(I12
tp599
tp600
I2
s((I2
tp601
(I13
tp602
tp603
I2
s((I2
tp604
(I19
tp605
tp606
I2
s((I103
tp607
(I106
tp608
tp609
I1
s((I103
tp610
(I111
tp611
tp612
I2
s((I103
tp613
(I110
tp614
tp615
I2
s((I103
tp616
(I119
tp617
tp618
I2
s((I111
tp619
(I113
tp620
tp621
I1
s((I111
tp622
(I115
tp623
tp624
I2
s((I111
tp625
(I117
tp626
tp627
I2
s((I111
tp628
(I116
tp629
tp630
I2
s((I111
tp631
(I118
tp632
tp633
I2
s((I111
tp634
(I124
tp635
tp636
I0
s((I11
tp637
(I21
tp638
tp639
I1
s((I11
tp640
(I20
tp641
tp642
I1
s((I3
tp643
(I14
tp644
tp645
I2
s((I11
tp646
(I17
tp647
tp648
I1
s((I11
tp649
(I16
tp650
tp651
I1
s((I11
tp652
(I19
tp653
tp654
I1
s((I11
tp655
(I18
tp656
tp657
I1
s((I102
tp658
(I118
tp659
tp660
I2
s((I3
tp661
(I4
tp662
tp663
I2
s((I102
tp664
(I116
tp665
tp666
I2
s((I102
tp667
(I117
tp668
tp669
I2
s((I102
tp670
(I115
tp671
tp672
I2
s((I119
tp673
(I123
tp674
tp675
I1
s((I102
tp676
(I106
tp677
tp678
I1
s((I101
tp679
(I122
tp680
tp681
I2
s((I11
tp682
(I13
tp683
tp684
I0
s((I11
tp685
(I12
tp686
tp687
I0
s((I11
tp688
(I15
tp689
tp690
I1
s((I11
tp691
(I14
tp692
tp693
I0
s((I3
tp694
(I16
tp695
tp696
I2
s.