(dp0
((I6
tp1
(I19
tp2
tp3
I2
s((I107
tp4
(I122
tp5
tp6
I2
s((I6
tp7
(I7
tp8
tp9
I2
s((I5
tp10
(I6
tp11
tp12
I2
s((I5
tp13
(I15
tp14
tp15
I2
s((I5
tp16
(I14
tp17
tp18
I2
s((I5
tp19
(I13
tp20
tp21
I2
s((I5
tp22
(I12
tp23
tp24
I2
s((I5
tp25
(I11
tp26
tp27
I2
s((I5
tp28
(I10
tp29
tp30
I2
s((I5
tp31
(I20
tp32
tp33
I2
s((I5
tp34
(I18
tp35
tp36
I2
s((I5
tp37
(I16
tp38
tp39
I2
s((I14
tp40
(I15
tp41
tp42
I1
s((I14
tp43
(I20
tp44
tp45
I1
s((I14
tp46
(I21
tp47
tp48
I1
s((I14
tp49
(I18
tp50
tp51
I1
s((I14
tp52
(I19
tp53
tp54
I1
s((I14
tp55
(I16
tp56
tp57
I1
s((I14
tp58
(I17
tp59
tp60
I1
s((I2
tp61
(I8
tp62
tp63
I2
s((I120
tp64
(I121
tp65
tp66
I2
s((I120
tp67
(I122
tp68
tp69
I2
s((I120
tp70
(I124
tp71
tp72
I2
s((I120
tp73
(I125
tp74
tp75
I2
s((I115
tp76
(I125
tp77
tp78
I1
s((I115
tp79
(I124
tp80
tp81
I1
s((I115
tp82
(I121
tp83
tp84
I1
s((I115
tp85
(I120
tp86
tp87
I1
s((I115
tp88
(I123
tp89
tp90
I1
s((I115
tp91
(I122
tp92
tp93
I1
s((I115
tp94
(I117
tp95
tp96
I0
s((I115
tp97
(I116
tp98
tp99
I0
s((I115
tp100
(I119
tp101
tp102
I1
s((I115
tp103
(I118
tp104
tp105
I0
s((I116
tp106
(I117
tp107
tp108
I0
s((I1
tp109
(I11
tp110
tp111
I2
s((I1
tp112
(I9
tp113
tp114
I2
s((I1
tp115
(I14
tp116
tp117
I2
s((I1
tp118
(I13
tp119
tp120
I2
s((I1
tp121
(I12
tp122
tp123
I2
s((I1
tp124
(I3
tp125
tp126
I2
s((I1
tp127
(I2
tp128
tp129
I2
s((I1
tp130
(I7
tp131
tp132
I2
s((I1
tp133
(I6
tp134
tp135
I2
s((I1
tp136
(I5
tp137
tp138
I2
s((I1
tp139
(I19
tp140
tp141
I2
s((I1
tp142
(I18
tp143
tp144
I2
s((I1
tp145
(I17
tp146
tp147
I2
s((I1
tp148
(I21
tp149
tp150
I1
s((I10
tp151
(I11
tp152
tp153
I2
s((I116
tp154
(I118
tp155
tp156
I0
s((I116
tp157
(I119
tp158
tp159
I1
s((I10
tp160
(I14
tp161
tp162
I2
s((I10
tp163
(I15
tp164
tp165
I2
s((I10
tp166
(I12
tp167
tp168
I2
s((I10
tp169
(I13
tp170
tp171
I2
s((I116
tp172
(I124
tp173
tp174
I1
s((I116
tp175
(I125
tp176
tp177
I1
s((I116
tp178
(I120
tp179
tp180
I1
s((I116
tp181
(I121
tp182
tp183
I1
s((I116
tp184
(I122
tp185
tp186
I1
s((I116
tp187
(I123
tp188
tp189
I1
s((I10
tp190
(I18
tp191
tp192
I1
s((I10
tp193
(I19
tp194
tp195
I2
s((I10
tp196
(I16
tp197
tp198
I2
s((I10
tp199
(I20
tp200
tp201
I2
s((I10
tp202
(I21
tp203
tp204
I1
s((I19
tp205
(I21
tp206
tp207
I1
s((I111
tp208
(I113
tp209
tp210
I1
s((I111
tp211
(I112
tp212
tp213
I1
s((I111
tp214
(I115
tp215
tp216
I2
s((I111
tp217
(I114
tp218
tp219
I1
s((I111
tp220
(I117
tp221
tp222
I2
s((I111
tp223
(I116
tp224
tp225
I2
s((I111
tp226
(I119
tp227
tp228
I2
s((I111
tp229
(I118
tp230
tp231
I2
s((I111
tp232
(I121
tp233
tp234
I1
s((I111
tp235
(I123
tp236
tp237
I0
s((I111
tp238
(I122
tp239
tp240
I2
s((I111
tp241
(I125
tp242
tp243
I2
s((I111
tp244
(I124
tp245
tp246
I0
s((I102
tp247
(I124
tp248
tp249
I2
s((I102
tp250
(I123
tp251
tp252
I2
s((I102
tp253
(I120
tp254
tp255
I0
s((I102
tp256
(I118
tp257
tp258
I2
s((I102
tp259
(I116
tp260
tp261
I2
s((I102
tp262
(I117
tp263
tp264
I2
s((I102
tp265
(I115
tp266
tp267
I2
s((I102
tp268
(I113
tp269
tp270
I1
s((I102
tp271
(I110
tp272
tp273
I2
s((I102
tp274
(I111
tp275
tp276
I2
s((I102
tp277
(I108
tp278
tp279
I2
s((I102
tp280
(I109
tp281
tp282
I2
s((I102
tp283
(I106
tp284
tp285
I1
s((I102
tp286
(I107
tp287
tp288
I1
s((I102
tp289
(I105
tp290
tp291
I1
s((I102
tp292
(I103
tp293
tp294
I1
s((I110
tp295
(I111
tp296
tp297
I1
s((I110
tp298
(I118
tp299
tp300
I2
s((I110
tp301
(I116
tp302
tp303
I2
s((I110
tp304
(I117
tp305
tp306
I2
s((I110
tp307
(I115
tp308
tp309
I2
s((I110
tp310
(I112
tp311
tp312
I1
s((I110
tp313
(I124
tp314
tp315
I1
s((I110
tp316
(I125
tp317
tp318
I1
s((I110
tp319
(I122
tp320
tp321
I1
s((I110
tp322
(I123
tp323
tp324
I1
s((I110
tp325
(I121
tp326
tp327
I1
s((I105
tp328
(I115
tp329
tp330
I2
s((I4
tp331
(I5
tp332
tp333
I1
s((I4
tp334
(I6
tp335
tp336
I2
s((I4
tp337
(I7
tp338
tp339
I2
s((I105
tp340
(I119
tp341
tp342
I2
s((I105
tp343
(I118
tp344
tp345
I2
s((I105
tp346
(I117
tp347
tp348
I2
s((I105
tp349
(I116
tp350
tp351
I2
s((I4
tp352
(I12
tp353
tp354
I2
s((I4
tp355
(I13
tp356
tp357
I2
s((I4
tp358
(I14
tp359
tp360
I2
s((I4
tp361
(I15
tp362
tp363
I2
s((I4
tp364
(I8
tp365
tp366
I2
s((I4
tp367
(I10
tp368
tp369
I2
s((I4
tp370
(I11
tp371
tp372
I2
s((I4
tp373
(I20
tp374
tp375
I2
s((I4
tp376
(I21
tp377
tp378
I1
s((I4
tp379
(I16
tp380
tp381
I2
s((I105
tp382
(I107
tp383
tp384
I2
s((I105
tp385
(I111
tp386
tp387
I2
s((I105
tp388
(I109
tp389
tp390
I2
s((I13
tp391
(I15
tp392
tp393
I1
s((I13
tp394
(I14
tp395
tp396
I0
s((I13
tp397
(I21
tp398
tp399
I1
s((I13
tp400
(I20
tp401
tp402
I1
s((I13
tp403
(I19
tp404
tp405
I1
s((I13
tp406
(I18
tp407
tp408
I1
s((I13
tp409
(I17
tp410
tp411
I1
s((I13
tp412
(I16
tp413
tp414
I1
s((I101
tp415
(I103
tp416
tp417
I2
s((I101
tp418
(I102
tp419
tp420
I0
s((I123
tp421
(I125
tp422
tp423
I2
s((I123
tp424
(I124
tp425
tp426
I1
s((I0
tp427
(I2
tp428
tp429
I2
s((I106
tp430
(I107
tp431
tp432
I2
s((I101
tp433
(I108
tp434
tp435
I2
s((I106
tp436
(I111
tp437
tp438
I2
s((I106
tp439
(I109
tp440
tp441
I2
s((I0
tp442
(I4
tp443
tp444
I2
s((I106
tp445
(I123
tp446
tp447
I2
s((I106
tp448
(I120
tp449
tp450
I2
s((I101
tp451
(I105
tp452
tp453
I0
s((I106
tp454
(I124
tp455
tp456
I2
s((I106
tp457
(I125
tp458
tp459
I2
s((I106
tp460
(I114
tp461
tp462
I2
s((I106
tp463
(I115
tp464
tp465
I2
s((I106
tp466
(I113
tp467
tp468
I2
s((I106
tp469
(I118
tp470
tp471
I2
s((I106
tp472
(I119
tp473
tp474
I2
s((I106
tp475
(I116
tp476
tp477
I2
s((I106
tp478
(I117
tp479
tp480
I2
s((I0
tp481
(I8
tp482
tp483
I2
s((I0
tp484
(I9
tp485
tp486
I2
s((I0
tp487
(I10
tp488
tp489
I2
s((I0
tp490
(I11
tp491
tp492
I2
s((I0
tp493
(I12
tp494
tp495
I2
s((I0
tp496
(I13
tp497
tp498
I2
s((I0
tp499
(I14
tp500
tp501
I2
s((I0
tp502
(I15
tp503
tp504
I2
s((I101
tp505
(I111
tp506
tp507
I2
s((I0
tp508
(I1
tp509
tp510
I2
s((I101
tp511
(I109
tp512
tp513
I2
s((I0
tp514
(I3
tp515
tp516
I2
s((I101
tp517
(I107
tp518
tp519
I1
s((I0
tp520
(I5
tp521
tp522
I2
s((I0
tp523
(I6
tp524
tp525
I2
s((I0
tp526
(I7
tp527
tp528
I2
s((I101
tp529
(I118
tp530
tp531
I2
s((I101
tp532
(I117
tp533
tp534
I2
s((I101
tp535
(I116
tp536
tp537
I2
s((I101
tp538
(I115
tp539
tp540
I2
s((I0
tp541
(I17
tp542
tp543
I2
s((I0
tp544
(I18
tp545
tp546
I2
s((I0
tp547
(I19
tp548
tp549
I2
s((I0
tp550
(I20
tp551
tp552
I2
s((I0
tp553
(I21
tp554
tp555
I2
s((I101
tp556
(I121
tp557
tp558
I2
s((I101
tp559
(I120
tp560
tp561
I1
s((I9
tp562
(I19
tp563
tp564
I2
s((I9
tp565
(I18
tp566
tp567
I1
s((I9
tp568
(I17
tp569
tp570
I1
s((I9
tp571
(I16
tp572
tp573
I1
s((I101
tp574
(I122
tp575
tp576
I2
s((I9
tp577
(I11
tp578
tp579
I2
s((I9
tp580
(I10
tp581
tp582
I1
s((I9
tp583
(I14
tp584
tp585
I2
s((I9
tp586
(I13
tp587
tp588
I2
s((I9
tp589
(I12
tp590
tp591
I2
s((I18
tp592
(I19
tp593
tp594
I2
s((I18
tp595
(I20
tp596
tp597
I1
s((I18
tp598
(I21
tp599
tp600
I1
s((I101
tp601
(I104
tp602
tp603
I2
s((I119
tp604
(I121
tp605
tp606
I0
s((I119
tp607
(I123
tp608
tp609
I1
s((I119
tp610
(I122
tp611
tp612
I0
s((I119
tp613
(I125
tp614
tp615
I0
s((I119
tp616
(I124
tp617
tp618
I1
s((I12
tp619
(I13
tp620
tp621
I0
s((I12
tp622
(I14
tp623
tp624
I0
s((I12
tp625
(I15
tp626
tp627
I1
s((I12
tp628
(I20
tp629
tp630
I1
s((I12
tp631
(I21
tp632
tp633
I1
s((I12
tp634
(I16
tp635
tp636
I1
s((I12
tp637
(I17
tp638
tp639
I1
s((I12
tp640
(I18
tp641
tp642
I1
s((I12
tp643
(I19
tp644
tp645
I1
s((I118
tp646
(I124
tp647
tp648
I1
s((I118
tp649
(I125
tp650
tp651
I1
s((I118
tp652
(I122
tp653
tp654
I1
s((I118
tp655
(I123
tp656
tp657
I1
s((I118
tp658
(I120
tp659
tp660
I1
s((I118
tp661
(I121
tp662
tp663
I1
s((I118
tp664
(I119
tp665
tp666
I1
s((I113
tp667
(I123
tp668
tp669
I2
s((I113
tp670
(I122
tp671
tp672
I2
s((I113
tp673
(I121
tp674
tp675
I2
s((I113
tp676
(I125
tp677
tp678
I2
s((I113
tp679
(I124
tp680
tp681
I2
s((I113
tp682
(I115
tp683
tp684
I2
s((I113
tp685
(I114
tp686
tp687
I2
s((I113
tp688
(I118
tp689
tp690
I2
s((I113
tp691
(I117
tp692
tp693
I2
s((I113
tp694
(I116
tp695
tp696
I2
s((I104
tp697
(I112
tp698
tp699
I2
s((I104
tp700
(I113
tp701
tp702
I1
s((I104
tp703
(I115
tp704
tp705
I2
s((I104
tp706
(I116
tp707
tp708
I2
s((I104
tp709
(I117
tp710
tp711
I2
s((I104
tp712
(I118
tp713
tp714
I2
s((I104
tp715
(I119
tp716
tp717
I2
s((I104
tp718
(I121
tp719
tp720
I2
s((I104
tp721
(I122
tp722
tp723
I2
s((I104
tp724
(I123
tp725
tp726
I2
s((I104
tp727
(I125
tp728
tp729
I2
s((I104
tp730
(I105
tp731
tp732
I1
s((I104
tp733
(I106
tp734
tp735
I0
s((I104
tp736
(I107
tp737
tp738
I2
s((I104
tp739
(I110
tp740
tp741
I2
s((I104
tp742
(I111
tp743
tp744
I2
s((I105
tp745
(I114
tp746
tp747
I2
s((I105
tp748
(I113
tp749
tp750
I1
s((I7
tp751
(I17
tp752
tp753
I1
s((I7
tp754
(I18
tp755
tp756
I1
s((I7
tp757
(I21
tp758
tp759
I1
s((I7
tp760
(I20
tp761
tp762
I1
s((I7
tp763
(I9
tp764
tp765
I2
s((I7
tp766
(I8
tp767
tp768
I1
s((I7
tp769
(I11
tp770
tp771
I2
s((I7
tp772
(I13
tp773
tp774
I2
s((I7
tp775
(I12
tp776
tp777
I2
s((I105
tp778
(I122
tp779
tp780
I2
s((I105
tp781
(I121
tp782
tp783
I2
s((I114
tp784
(I115
tp785
tp786
I2
s((I114
tp787
(I118
tp788
tp789
I2
s((I114
tp790
(I119
tp791
tp792
I0
s((I114
tp793
(I116
tp794
tp795
I2
s((I114
tp796
(I117
tp797
tp798
I2
s((I114
tp799
(I123
tp800
tp801
I1
s((I114
tp802
(I120
tp803
tp804
I1
s((I114
tp805
(I121
tp806
tp807
I2
s((I114
tp808
(I125
tp809
tp810
I0
s((I105
tp811
(I124
tp812
tp813
I2
s((I8
tp814
(I16
tp815
tp816
I0
s((I8
tp817
(I17
tp818
tp819
I0
s((I8
tp820
(I19
tp821
tp822
I0
s((I8
tp823
(I21
tp824
tp825
I1
s((I8
tp826
(I10
tp827
tp828
I1
s((I8
tp829
(I11
tp830
tp831
I2
s((I8
tp832
(I12
tp833
tp834
I2
s((I8
tp835
(I13
tp836
tp837
I2
s((I8
tp838
(I14
tp839
tp840
I2
s((I8
tp841
(I15
tp842
tp843
I1
s((I109
tp844
(I111
tp845
tp846
I1
s((I17
tp847
(I18
tp848
tp849
I1
s((I109
tp850
(I125
tp851
tp852
I0
s((I109
tp853
(I124
tp854
tp855
I1
s((I109
tp856
(I123
tp857
tp858
I1
s((I109
tp859
(I122
tp860
tp861
I1
s((I109
tp862
(I121
tp863
tp864
I1
s((I109
tp865
(I120
tp866
tp867
I1
s((I109
tp868
(I118
tp869
tp870
I2
s((I109
tp871
(I117
tp872
tp873
I2
s((I109
tp874
(I116
tp875
tp876
I2
s((I109
tp877
(I115
tp878
tp879
I2
s((I109
tp880
(I114
tp881
tp882
I1
s((I109
tp883
(I113
tp884
tp885
I1
s((I109
tp886
(I112
tp887
tp888
I1
s((I100
tp889
(I109
tp890
tp891
I2
s((I100
tp892
(I110
tp893
tp894
I2
s((I100
tp895
(I111
tp896
tp897
I2
s((I100
tp898
(I104
tp899
tp900
I2
s((I100
tp901
(I105
tp902
tp903
I1
s((I100
tp904
(I107
tp905
tp906
I2
s((I100
tp907
(I116
tp908
tp909
I2
s((I100
tp910
(I117
tp911
tp912
I2
s((I100
tp913
(I118
tp914
tp915
I2
s((I100
tp916
(I119
tp917
tp918
I2
s((I100
tp919
(I113
tp920
tp921
I2
s((I100
tp922
(I114
tp923
tp924
I2
s((I100
tp925
(I115
tp926
tp927
I2
s((I100
tp928
(I124
tp929
tp930
I2
s((I100
tp931
(I121
tp932
tp933
I2
s((I100
tp934
(I123
tp935
tp936
I2
s((I2
tp937
(I3
tp938
tp939
I2
s((I7
tp940
(I14
tp941
tp942
I2
s((I103
tp943
(I125
tp944
tp945
I2
s((I103
tp946
(I124
tp947
tp948
I2
s((I3
tp949
(I13
tp950
tp951
I2
s((I3
tp952
(I12
tp953
tp954
I2
s((I3
tp955
(I15
tp956
tp957
I2
s((I3
tp958
(I14
tp959
tp960
I2
s((I3
tp961
(I8
tp962
tp963
I2
s((I3
tp964
(I11
tp965
tp966
I2
s((I3
tp967
(I10
tp968
tp969
I2
s((I3
tp970
(I5
tp971
tp972
I1
s((I3
tp973
(I4
tp974
tp975
I2
s((I3
tp976
(I6
tp977
tp978
I2
s((I103
tp979
(I113
tp980
tp981
I1
s((I3
tp982
(I21
tp983
tp984
I1
s((I3
tp985
(I20
tp986
tp987
I2
s((I3
tp988
(I17
tp989
tp990
I2
s((I3
tp991
(I16
tp992
tp993
I2
s((I3
tp994
(I18
tp995
tp996
I2
s((I20
tp997
(I21
tp998
tp999
I1
s((I103
tp1000
(I114
tp1001
tp1002
I2
s((I103
tp1003
(I117
tp1004
tp1005
I2
s((I2
tp1006
(I15
tp1007
tp1008
I2
s((I103
tp1009
(I119
tp1010
tp1011
I2
s((I103
tp1012
(I118
tp1013
tp1014
I2
s((I103
tp1015
(I104
tp1016
tp1017
I1
s((I2
tp1018
(I17
tp1019
tp1020
I2
s((I2
tp1021
(I20
tp1022
tp1023
I2
s((I121
tp1024
(I123
tp1025
tp1026
I2
s((I121
tp1027
(I122
tp1028
tp1029
I2
s((I121
tp1030
(I125
tp1031
tp1032
I2
s((I121
tp1033
(I124
tp1034
tp1035
I1
s((I112
tp1036
(I120
tp1037
tp1038
I1
s((I112
tp1039
(I121
tp1040
tp1041
I2
s((I112
tp1042
(I123
tp1043
tp1044
I2
s((I112
tp1045
(I124
tp1046
tp1047
I2
s((I112
tp1048
(I115
tp1049
tp1050
I2
s((I112
tp1051
(I116
tp1052
tp1053
I2
s((I112
tp1054
(I117
tp1055
tp1056
I2
s((I112
tp1057
(I118
tp1058
tp1059
I2
s((I112
tp1060
(I119
tp1061
tp1062
I2
s((I107
tp1063
(I117
tp1064
tp1065
I2
s((I107
tp1066
(I116
tp1067
tp1068
I2
s((I107
tp1069
(I119
tp1070
tp1071
I2
s((I107
tp1072
(I118
tp1073
tp1074
I2
s((I107
tp1075
(I113
tp1076
tp1077
I1
s((I107
tp1078
(I115
tp1079
tp1080
I2
s((I107
tp1081
(I125
tp1082
tp1083
I2
s((I6
tp1084
(I20
tp1085
tp1086
I0
s((I6
tp1087
(I21
tp1088
tp1089
I1
s((I6
tp1090
(I18
tp1091
tp1092
I1
s((I107
tp1093
(I120
tp1094
tp1095
I0
s((I6
tp1096
(I16
tp1097
tp1098
I1
s((I6
tp1099
(I17
tp1100
tp1101
I0
s((I6
tp1102
(I14
tp1103
tp1104
I2
s((I6
tp1105
(I15
tp1106
tp1107
I1
s((I6
tp1108
(I12
tp1109
tp1110
I2
s((I6
tp1111
(I13
tp1112
tp1113
I2
s((I6
tp1114
(I11
tp1115
tp1116
I2
s((I6
tp1117
(I8
tp1118
tp1119
I2
s((I6
tp1120
(I9
tp1121
tp1122
I2
s((I107
tp1123
(I109
tp1124
tp1125
I2
s((I107
tp1126
(I108
tp1127
tp1128
I2
s((I107
tp1129
(I111
tp1130
tp1131
I2
s((I107
tp1132
(I110
tp1133
tp1134
I2
s((I15
tp1135
(I17
tp1136
tp1137
I2
s((I15
tp1138
(I16
tp1139
tp1140
I2
s((I15
tp1141
(I18
tp1142
tp1143
I1
s((I15
tp1144
(I21
tp1145
tp1146
I1
s((I15
tp1147
(I20
tp1148
tp1149
I2
s((I16
tp1150
(I17
tp1151
tp1152
I2
s((I16
tp1153
(I18
tp1154
tp1155
I1
s((I16
tp1156
(I20
tp1157
tp1158
I1
s((I16
tp1159
(I21
tp1160
tp1161
I1
s((I122
tp1162
(I123
tp1163
tp1164
I1
s((I122
tp1165
(I124
tp1166
tp1167
I1
s((I117
tp1168
(I119
tp1169
tp1170
I1
s((I117
tp1171
(I118
tp1172
tp1173
I0
s((I117
tp1174
(I125
tp1175
tp1176
I1
s((I117
tp1177
(I124
tp1178
tp1179
I1
s((I117
tp1180
(I123
tp1181
tp1182
I1
s((I117
tp1183
(I122
tp1184
tp1185
I1
s((I117
tp1186
(I121
tp1187
tp1188
I1
s((I117
tp1189
(I120
tp1190
tp1191
I1
s((I108
tp1192
(I109
tp1193
tp1194
I1
s((I108
tp1195
(I111
tp1196
tp1197
I1
s((I108
tp1198
(I124
tp1199
tp1200
I0
s((I108
tp1201
(I121
tp1202
tp1203
I2
s((I108
tp1204
(I123
tp1205
tp1206
I1
s((I108
tp1207
(I116
tp1208
tp1209
I2
s((I108
tp1210
(I117
tp1211
tp1212
I2
s((I108
tp1213
(I118
tp1214
tp1215
I2
s((I108
tp1216
(I119
tp1217
tp1218
I1
s((I108
tp1219
(I112
tp1220
tp1221
I1
s((I108
tp1222
(I113
tp1223
tp1224
I1
s((I108
tp1225
(I115
tp1226
tp1227
I2
s((I103
tp1228
(I121
tp1229
tp1230
I2
s((I103
tp1231
(I120
tp1232
tp1233
I1
s((I103
tp1234
(I123
tp1235
tp1236
I2
s((I2
tp1237
(I6
tp1238
tp1239
I2
s((I2
tp1240
(I7
tp1241
tp1242
I2
s((I2
tp1243
(I4
tp1244
tp1245
I2
s((I2
tp1246
(I5
tp1247
tp1248
I2
s((I2
tp1249
(I10
tp1250
tp1251
I2
s((I2
tp1252
(I11
tp1253
tp1254
I2
s((I103
tp1255
(I115
tp1256
tp1257
I2
s((I2
tp1258
(I9
tp1259
tp1260
I2
s((I2
tp1261
(I14
tp1262
tp1263
I2
s((I103
tp1264
(I116
tp1265
tp1266
I2
s((I2
tp1267
(I12
tp1268
tp1269
I2
s((I2
tp1270
(I13
tp1271
tp1272
I2
s((I2
tp1273
(I18
tp1274
tp1275
I2
s((I2
tp1276
(I19
tp1277
tp1278
I2
s((I103
tp1279
(I107
tp1280
tp1281
I2
s((I103
tp1282
(I106
tp1283
tp1284
I1
s((I103
tp1285
(I111
tp1286
tp1287
I2
s((I103
tp1288
(I110
tp1289
tp1290
I2
s((I11
tp1291
(I21
tp1292
tp1293
I1
s((I11
tp1294
(I20
tp1295
tp1296
I1
s((I11
tp1297
(I17
tp1298
tp1299
I1
s((I11
tp1300
(I16
tp1301
tp1302
I1
s((I11
tp1303
(I19
tp1304
tp1305
I1
s((I11
tp1306
(I18
tp1307
tp1308
I1
s((I11
tp1309
(I13
tp1310
tp1311
I0
s((I11
tp1312
(I12
tp1313
tp1314
I0
s((I11
tp1315
(I15
tp1316
tp1317
I1
s((I11
tp1318
(I14
tp1319
tp1320
I0
s.