(dp0
((I7
tp1
(I16
tp2
tp3
I1
s((I11
tp4
(I113
tp5
tp6
I1
s((I6
tp7
(I15
tp8
tp9
I2
s((I11
tp10
(I109
tp11
tp12
I1
s((I5
tp13
(I120
tp14
tp15
I2
s((I116
tp16
(I118
tp17
tp18
I0
s((I4
tp19
(I111
tp20
tp21
I2
s((I2
tp22
(I110
tp23
tp24
I2
s((I1
tp25
(I121
tp26
tp27
I2
s((I0
tp28
(I2
tp29
tp30
I2
s((I17
tp31
(I110
tp32
tp33
I2
s((I109
tp34
(I125
tp35
tp36
I1
s((I7
tp37
(I104
tp38
tp39
I1
s((I17
tp40
(I122
tp41
tp42
I2
s((I102
tp43
(I105
tp44
tp45
I1
s((I107
tp46
(I109
tp47
tp48
I2
s((I108
tp49
(I121
tp50
tp51
I2
s((I8
tp52
(I18
tp53
tp54
I1
s((I1
tp55
(I14
tp56
tp57
I2
s((I8
tp58
(I121
tp59
tp60
I2
s((I106
tp61
(I125
tp62
tp63
I2
s((I12
tp64
(I17
tp65
tp66
I1
s((I103
tp67
(I109
tp68
tp69
I2
s((I14
tp70
(I15
tp71
tp72
I1
s((I2
tp73
(I108
tp74
tp75
I2
s((I14
tp76
(I113
tp77
tp78
I1
s((I116
tp79
(I123
tp80
tp81
I1
s((I3
tp82
(I116
tp83
tp84
I2
s((I114
tp85
(I120
tp86
tp87
I1
s((I12
tp88
(I111
tp89
tp90
I1
s((I5
tp91
(I115
tp92
tp93
I2
s((I10
tp94
(I12
tp95
tp96
I2
s((I3
tp97
(I14
tp98
tp99
I2
s((I113
tp100
(I115
tp101
tp102
I2
s((I0
tp103
(I13
tp104
tp105
I2
s((I13
tp106
(I100
tp107
tp108
I1
s((I17
tp109
(I114
tp110
tp111
I2
s((I13
tp112
(I17
tp113
tp114
I1
s((I6
tp115
(I109
tp116
tp117
I2
s((I109
tp118
(I122
tp119
tp120
I2
s((I10
tp121
(I125
tp122
tp123
I2
s((I110
tp124
(I111
tp125
tp126
I1
s((I101
tp127
(I110
tp128
tp129
I2
s((I21
tp130
(I113
tp131
tp132
I1
s((I11
tp133
(I112
tp134
tp135
I1
s((I10
tp136
(I108
tp137
tp138
I2
s((I21
tp139
(I114
tp140
tp141
I2
s((I9
tp142
(I11
tp143
tp144
I2
s((I2
tp145
(I112
tp146
tp147
I2
s((I20
tp148
(I111
tp149
tp150
I1
s((I111
tp151
(I115
tp152
tp153
I2
s((I6
tp154
(I9
tp155
tp156
I0
s((I112
tp157
(I116
tp158
tp159
I2
s((I21
tp160
(I110
tp161
tp162
I2
s((I106
tp163
(I112
tp164
tp165
I2
s((I101
tp166
(I117
tp167
tp168
I2
s((I117
tp169
(I122
tp170
tp171
I1
s((I115
tp172
(I119
tp173
tp174
I1
s((I17
tp175
(I123
tp176
tp177
I1
s((I109
tp178
(I118
tp179
tp180
I2
s((I6
tp181
(I116
tp182
tp183
I2
s((I120
tp184
(I123
tp185
tp186
I2
s((I15
tp187
(I125
tp188
tp189
I1
s((I2
tp190
(I115
tp191
tp192
I2
s((I4
tp193
(I112
tp194
tp195
I2
s((I13
tp196
(I112
tp197
tp198
I1
s((I9
tp199
(I115
tp200
tp201
I2
s((I105
tp202
(I106
tp203
tp204
I1
s((I20
tp205
(I110
tp206
tp207
I1
s((I105
tp208
(I116
tp209
tp210
I2
s((I14
tp211
(I110
tp212
tp213
I1
s((I13
tp214
(I115
tp215
tp216
I0
s((I3
tp217
(I111
tp218
tp219
I2
s((I3
tp220
(I13
tp221
tp222
I2
s((I2
tp223
(I119
tp224
tp225
I2
s((I6
tp226
(I104
tp227
tp228
I1
s((I8
tp229
(I115
tp230
tp231
I2
s((I104
tp232
(I113
tp233
tp234
I2
s((I5
tp235
(I109
tp236
tp237
I2
s((I7
tp238
(I114
tp239
tp240
I2
s((I0
tp241
(I116
tp242
tp243
I2
s((I18
tp244
(I120
tp245
tp246
I2
s((I1
tp247
(I108
tp248
tp249
I2
s((I102
tp250
(I118
tp251
tp252
I2
s((I4
tp253
(I101
tp254
tp255
I1
s((I107
tp256
(I119
tp257
tp258
I2
s((I7
tp259
(I17
tp260
tp261
I1
s((I117
tp262
(I118
tp263
tp264
I0
s((I14
tp265
(I123
tp266
tp267
I1
s((I6
tp268
(I118
tp269
tp270
I2
s((I10
tp271
(I101
tp272
tp273
I1
s((I12
tp274
(I112
tp275
tp276
I1
s((I6
tp277
(I107
tp278
tp279
I1
s((I3
tp280
(I117
tp281
tp282
I2
s((I104
tp283
(I123
tp284
tp285
I2
s((I108
tp286
(I125
tp287
tp288
I1
s((I2
tp289
(I4
tp290
tp291
I2
s((I9
tp292
(I16
tp293
tp294
I1
s((I2
tp295
(I6
tp296
tp297
I2
s((I5
tp298
(I13
tp299
tp300
I2
s((I11
tp301
(I110
tp302
tp303
I1
s((I7
tp304
(I105
tp305
tp306
I1
s((I121
tp307
(I125
tp308
tp309
I1
s((I106
tp310
(I113
tp311
tp312
I2
s((I1
tp313
(I118
tp314
tp315
I2
s((I2
tp316
(I123
tp317
tp318
I2
s((I103
tp319
(I122
tp320
tp321
I2
s((I114
tp322
(I119
tp323
tp324
I1
s((I10
tp325
(I120
tp326
tp327
I0
s((I105
tp328
(I119
tp329
tp330
I2
s((I6
tp331
(I7
tp332
tp333
I2
s((I104
tp334
(I120
tp335
tp336
I2
s((I9
tp337
(I104
tp338
tp339
I1
s((I19
tp340
(I118
tp341
tp342
I2
s((I102
tp343
(I107
tp344
tp345
I2
s((I15
tp346
(I103
tp347
tp348
I1
s((I14
tp349
(I112
tp350
tp351
I1
s((I110
tp352
(I125
tp353
tp354
I1
s((I16
tp355
(I106
tp356
tp357
I1
s((I3
tp358
(I4
tp359
tp360
I1
s((I12
tp361
(I117
tp362
tp363
I0
s((I109
tp364
(I117
tp365
tp366
I2
s((I11
tp367
(I14
tp368
tp369
I0
s((I2
tp370
(I8
tp371
tp372
I2
s((I2
tp373
(I10
tp374
tp375
I2
s((I12
tp376
(I13
tp377
tp378
I0
s((I3
tp379
(I12
tp380
tp381
I2
s((I1
tp382
(I10
tp383
tp384
I2
s((I105
tp385
(I110
tp386
tp387
I2
s((I111
tp388
(I122
tp389
tp390
I2
s((I11
tp391
(I123
tp392
tp393
I1
s((I114
tp394
(I123
tp395
tp396
I1
s((I5
tp397
(I100
tp398
tp399
I1
s((I3
tp400
(I124
tp401
tp402
I2
s((I5
tp403
(I105
tp404
tp405
I0
s((I105
tp406
(I112
tp407
tp408
I2
s((I0
tp409
(I5
tp410
tp411
I2
s((I105
tp412
(I111
tp413
tp414
I2
s((I124
tp415
(I125
tp416
tp417
I2
s((I118
tp418
(I120
tp419
tp420
I1
s((I5
tp421
(I20
tp422
tp423
I2
s((I110
tp424
(I123
tp425
tp426
I1
s((I15
tp427
(I110
tp428
tp429
I1
s((I15
tp430
(I16
tp431
tp432
I1
s((I109
tp433
(I114
tp434
tp435
I2
s((I15
tp436
(I115
tp437
tp438
I2
s((I115
tp439
(I116
tp440
tp441
I0
s((I5
tp442
(I17
tp443
tp444
I2
s((I5
tp445
(I7
tp446
tp447
I2
s((I101
tp448
(I118
tp449
tp450
I2
s((I21
tp451
(I121
tp452
tp453
I2
s((I10
tp454
(I121
tp455
tp456
I2
s((I115
tp457
(I117
tp458
tp459
I0
s((I11
tp460
(I124
tp461
tp462
I1
s((I7
tp463
(I119
tp464
tp465
I1
s((I20
tp466
(I21
tp467
tp468
I1
s((I100
tp469
(I104
tp470
tp471
I2
s((I0
tp472
(I106
tp473
tp474
I1
s((I14
tp475
(I109
tp476
tp477
I1
s((I13
tp478
(I114
tp479
tp480
I1
s((I101
tp481
(I125
tp482
tp483
I2
s((I0
tp484
(I7
tp485
tp486
I2
s((I11
tp487
(I13
tp488
tp489
I0
s((I19
tp490
(I116
tp491
tp492
I2
s((I7
tp493
(I115
tp494
tp495
I2
s((I109
tp496
(I110
tp497
tp498
I1
s((I21
tp499
(I101
tp500
tp501
I1
s((I0
tp502
(I8
tp503
tp504
I2
s((I2
tp505
(I19
tp506
tp507
I2
s((I7
tp508
(I18
tp509
tp510
I1
s((I1
tp511
(I12
tp512
tp513
I2
s((I18
tp514
(I122
tp515
tp516
I2
s((I107
tp517
(I112
tp518
tp519
I1
s((I100
tp520
(I107
tp521
tp522
I2
s((I15
tp523
(I112
tp524
tp525
I1
s((I102
tp526
(I103
tp527
tp528
I1
s((I9
tp529
(I17
tp530
tp531
I1
s((I3
tp532
(I21
tp533
tp534
I2
s((I16
tp535
(I101
tp536
tp537
I1
s((I8
tp538
(I106
tp539
tp540
I1
s((I4
tp541
(I12
tp542
tp543
I2
s((I2
tp544
(I100
tp545
tp546
I1
s((I108
tp547
(I115
tp548
tp549
I2
s((I0
tp550
(I108
tp551
tp552
I2
s((I9
tp553
(I18
tp554
tp555
I1
s((I113
tp556
(I118
tp557
tp558
I2
s((I4
tp559
(I120
tp560
tp561
I0
s((I104
tp562
(I106
tp563
tp564
I1
s((I110
tp565
(I117
tp566
tp567
I2
s((I10
tp568
(I114
tp569
tp570
I2
s((I9
tp571
(I105
tp572
tp573
I1
s((I4
tp574
(I123
tp575
tp576
I2
s((I5
tp577
(I6
tp578
tp579
I2
s((I17
tp580
(I125
tp581
tp582
I1
s((I5
tp583
(I8
tp584
tp585
I2
s((I12
tp586
(I124
tp587
tp588
I1
s((I12
tp589
(I20
tp590
tp591
I1
s((I8
tp592
(I111
tp593
tp594
I1
s((I9
tp595
(I106
tp596
tp597
I1
s((I1
tp598
(I119
tp599
tp600
I2
s((I13
tp601
(I109
tp602
tp603
I1
s((I13
tp604
(I108
tp605
tp606
I1
s((I1
tp607
(I115
tp608
tp609
I2
s((I0
tp610
(I107
tp611
tp612
I2
s((I104
tp613
(I110
tp614
tp615
I2
s((I100
tp616
(I115
tp617
tp618
I2
s((I8
tp619
(I108
tp620
tp621
I1
s((I8
tp622
(I109
tp623
tp624
I1
s((I2
tp625
(I104
tp626
tp627
I2
s((I20
tp628
(I103
tp629
tp630
I1
s((I2
tp631
(I106
tp632
tp633
I1
s((I8
tp634
(I116
tp635
tp636
I2
s((I111
tp637
(I119
tp638
tp639
I2
s((I0
tp640
(I9
tp641
tp642
I2
s((I101
tp643
(I108
tp644
tp645
I2
s((I12
tp646
(I121
tp647
tp648
I1
s((I20
tp649
(I124
tp650
tp651
I1
s((I18
tp652
(I123
tp653
tp654
I2
s((I6
tp655
(I122
tp656
tp657
I2
s((I12
tp658
(I113
tp659
tp660
I1
s((I6
tp661
(I108
tp662
tp663
I0
s((I104
tp664
(I112
tp665
tp666
I2
s((I21
tp667
(I108
tp668
tp669
I2
s((I8
tp670
(I12
tp671
tp672
I2
s((I3
tp673
(I20
tp674
tp675
I2
s((I12
tp676
(I118
tp677
tp678
I0
s((I100
tp679
(I108
tp680
tp681
I2
s((I0
tp682
(I109
tp683
tp684
I2
s((I15
tp685
(I21
tp686
tp687
I1
s((I114
tp688
(I115
tp689
tp690
I2
s((I2
tp691
(I124
tp692
tp693
I2
s((I103
tp694
(I119
tp695
tp696
I2
s((I20
tp697
(I101
tp698
tp699
I1
s((I10
tp700
(I115
tp701
tp702
I2
s((I106
tp703
(I124
tp704
tp705
I2
s((I17
tp706
(I120
tp707
tp708
I1
s((I15
tp709
(I18
tp710
tp711
I1
s((I107
tp712
(I122
tp713
tp714
I2
s((I9
tp715
(I119
tp716
tp717
I2
s((I14
tp718
(I108
tp719
tp720
I1
s((I16
tp721
(I111
tp722
tp723
I1
s((I118
tp724
(I122
tp725
tp726
I1
s((I7
tp727
(I111
tp728
tp729
I1
s((I6
tp730
(I101
tp731
tp732
I1
s((I19
tp733
(I20
tp734
tp735
I2
s((I115
tp736
(I121
tp737
tp738
I1
s((I7
tp739
(I19
tp740
tp741
I1
s((I113
tp742
(I120
tp743
tp744
I2
s((I100
tp745
(I121
tp746
tp747
I2
s((I11
tp748
(I122
tp749
tp750
I1
s((I11
tp751
(I121
tp752
tp753
I1
s((I0
tp754
(I121
tp755
tp756
I2
s((I114
tp757
(I124
tp758
tp759
I1
s((I105
tp760
(I109
tp761
tp762
I2
s((I115
tp763
(I122
tp764
tp765
I1
s((I16
tp766
(I17
tp767
tp768
I0
s((I8
tp769
(I102
tp770
tp771
I1
s((I17
tp772
(I102
tp773
tp774
I1
s((I7
tp775
(I107
tp776
tp777
I1
s((I118
tp778
(I121
tp779
tp780
I1
s((I9
tp781
(I19
tp782
tp783
I1
s((I15
tp784
(I109
tp785
tp786
I2
s((I15
tp787
(I114
tp788
tp789
I0
s((I13
tp790
(I14
tp791
tp792
I0
s((I14
tp793
(I125
tp794
tp795
I1
s((I100
tp796
(I111
tp797
tp798
I2
s((I18
tp799
(I114
tp800
tp801
I2
s((I1
tp802
(I102
tp803
tp804
I2
s((I4
tp805
(I122
tp806
tp807
I2
s((I107
tp808
(I124
tp809
tp810
I2
s((I17
tp811
(I101
tp812
tp813
I1
s((I114
tp814
(I122
tp815
tp816
I2
s((I122
tp817
(I124
tp818
tp819
I1
s((I9
tp820
(I107
tp821
tp822
I1
s((I6
tp823
(I16
tp824
tp825
I1
s((I12
tp826
(I123
tp827
tp828
I1
s((I1
tp829
(I19
tp830
tp831
I2
s((I106
tp832
(I111
tp833
tp834
I2
s((I0
tp835
(I11
tp836
tp837
I2
s((I20
tp838
(I112
tp839
tp840
I1
s((I110
tp841
(I113
tp842
tp843
I1
s((I119
tp844
(I121
tp845
tp846
I2
s((I6
tp847
(I100
tp848
tp849
I1
s((I15
tp850
(I118
tp851
tp852
I2
s((I15
tp853
(I116
tp854
tp855
I2
s((I2
tp856
(I20
tp857
tp858
I2
s((I15
tp859
(I121
tp860
tp861
I2
s((I115
tp862
(I124
tp863
tp864
I1
s((I3
tp865
(I115
tp866
tp867
I2
s((I10
tp868
(I100
tp869
tp870
I1
s((I13
tp871
(I120
tp872
tp873
I1
s((I10
tp874
(I19
tp875
tp876
I2
s((I104
tp877
(I118
tp878
tp879
I2
s((I109
tp880
(I111
tp881
tp882
I1
s((I6
tp883
(I10
tp884
tp885
I1
s((I19
tp886
(I110
tp887
tp888
I2
s((I8
tp889
(I11
tp890
tp891
I2
s((I0
tp892
(I112
tp893
tp894
I2
s((I0
tp895
(I1
tp896
tp897
I0
s((I101
tp898
(I116
tp899
tp900
I2
s((I7
tp901
(I8
tp902
tp903
I2
s((I16
tp904
(I115
tp905
tp906
I2
s((I18
tp907
(I115
tp908
tp909
I2
s((I18
tp910
(I125
tp911
tp912
I2
s((I6
tp913
(I114
tp914
tp915
I2
s((I123
tp916
(I124
tp917
tp918
I1
s((I109
tp919
(I113
tp920
tp921
I1
s((I12
tp922
(I125
tp923
tp924
I1
s((I105
tp925
(I115
tp926
tp927
I2
s((I21
tp928
(I116
tp929
tp930
I2
s((I101
tp931
(I103
tp932
tp933
I2
s((I15
tp934
(I106
tp935
tp936
I1
s((I6
tp937
(I18
tp938
tp939
I1
s((I0
tp940
(I101
tp941
tp942
I2
s((I105
tp943
(I125
tp944
tp945
I2
s((I112
tp946
(I113
tp947
tp948
I1
s((I5
tp949
(I116
tp950
tp951
I2
s((I103
tp952
(I113
tp953
tp954
I2
s((I7
tp955
(I15
tp956
tp957
I2
s((I17
tp958
(I20
tp959
tp960
I2
s((I8
tp961
(I112
tp962
tp963
I1
s((I0
tp964
(I118
tp965
tp966
I2
s((I108
tp967
(I123
tp968
tp969
I2
s((I10
tp970
(I119
tp971
tp972
I2
s((I107
tp973
(I114
tp974
tp975
I2
s((I19
tp976
(I104
tp977
tp978
I1
s((I14
tp979
(I121
tp980
tp981
I1
s((I14
tp982
(I116
tp983
tp984
I0
s((I4
tp985
(I125
tp986
tp987
I2
s((I16
tp988
(I103
tp989
tp990
I1
s((I7
tp991
(I103
tp992
tp993
I1
s((I109
tp994
(I123
tp995
tp996
I1
s((I19
tp997
(I125
tp998
tp999
I2
s((I20
tp1000
(I107
tp1001
tp1002
I1
s((I8
tp1003
(I101
tp1004
tp1005
I1
s((I4
tp1006
(I13
tp1007
tp1008
I2
s((I102
tp1009
(I112
tp1010
tp1011
I2
s((I11
tp1012
(I108
tp1013
tp1014
I1
s((I10
tp1015
(I112
tp1016
tp1017
I0
s((I106
tp1018
(I115
tp1019
tp1020
I2
s((I114
tp1021
(I116
tp1022
tp1023
I2
s((I8
tp1024
(I119
tp1025
tp1026
I1
s((I6
tp1027
(I19
tp1028
tp1029
I1
s((I4
tp1030
(I116
tp1031
tp1032
I2
s((I1
tp1033
(I6
tp1034
tp1035
I2
s((I19
tp1036
(I21
tp1037
tp1038
I2
s((I19
tp1039
(I100
tp1040
tp1041
I1
s((I1
tp1042
(I117
tp1043
tp1044
I2
s((I3
tp1045
(I10
tp1046
tp1047
I2
s((I113
tp1048
(I119
tp1049
tp1050
I2
s((I4
tp1051
(I16
tp1052
tp1053
I2
s((I7
tp1054
(I123
tp1055
tp1056
I1
s((I1
tp1057
(I20
tp1058
tp1059
I2
s((I20
tp1060
(I116
tp1061
tp1062
I2
s((I17
tp1063
(I107
tp1064
tp1065
I1
s((I11
tp1066
(I12
tp1067
tp1068
I0
s((I100
tp1069
(I103
tp1070
tp1071
I2
s((I4
tp1072
(I108
tp1073
tp1074
I2
s((I110
tp1075
(I112
tp1076
tp1077
I1
s((I12
tp1078
(I103
tp1079
tp1080
I1
s((I107
tp1081
(I116
tp1082
tp1083
I2
s((I10
tp1084
(I124
tp1085
tp1086
I1
s((I102
tp1087
(I117
tp1088
tp1089
I2
s((I15
tp1090
(I104
tp1091
tp1092
I1
s((I106
tp1093
(I117
tp1094
tp1095
I2
s((I16
tp1096
(I18
tp1097
tp1098
I1
s((I5
tp1099
(I112
tp1100
tp1101
I2
s((I10
tp1102
(I18
tp1103
tp1104
I1
s((I2
tp1105
(I116
tp1106
tp1107
I2
s((I2
tp1108
(I118
tp1109
tp1110
I2
s((I5
tp1111
(I102
tp1112
tp1113
I0
s((I16
tp1114
(I102
tp1115
tp1116
I1
s((I5
tp1117
(I107
tp1118
tp1119
I2
s((I20
tp1120
(I125
tp1121
tp1122
I1
s((I5
tp1123
(I125
tp1124
tp1125
I2
s((I12
tp1126
(I16
tp1127
tp1128
I1
s((I9
tp1129
(I10
tp1130
tp1131
I1
s((I1
tp1132
(I124
tp1133
tp1134
I2
s((I100
tp1135
(I101
tp1136
tp1137
I2
s((I104
tp1138
(I121
tp1139
tp1140
I2
s((I5
tp1141
(I111
tp1142
tp1143
I2
s((I4
tp1144
(I107
tp1145
tp1146
I0
s((I104
tp1147
(I116
tp1148
tp1149
I2
s((I101
tp1150
(I120
tp1151
tp1152
I2
s((I12
tp1153
(I108
tp1154
tp1155
I1
s((I14
tp1156
(I111
tp1157
tp1158
I1
s((I100
tp1159
(I116
tp1160
tp1161
I2
s((I7
tp1162
(I9
tp1163
tp1164
I0
s((I19
tp1165
(I102
tp1166
tp1167
I1
s((I10
tp1168
(I113
tp1169
tp1170
I1
s((I5
tp1171
(I19
tp1172
tp1173
I2
s((I108
tp1174
(I109
tp1175
tp1176
I2
s((I2
tp1177
(I5
tp1178
tp1179
I2
s((I106
tp1180
(I120
tp1181
tp1182
I2
s((I19
tp1183
(I114
tp1184
tp1185
I2
s((I101
tp1186
(I107
tp1187
tp1188
I2
s((I18
tp1189
(I19
tp1190
tp1191
I2
s((I113
tp1192
(I121
tp1193
tp1194
I2
s((I112
tp1195
(I119
tp1196
tp1197
I2
s((I2
tp1198
(I120
tp1199
tp1200
I2
s((I3
tp1201
(I9
tp1202
tp1203
I2
s((I103
tp1204
(I124
tp1205
tp1206
I2
s((I103
tp1207
(I106
tp1208
tp1209
I1
s((I11
tp1210
(I107
tp1211
tp1212
I1
s((I9
tp1213
(I124
tp1214
tp1215
I1
s((I101
tp1216
(I124
tp1217
tp1218
I2
s((I1
tp1219
(I18
tp1220
tp1221
I2
s((I18
tp1222
(I107
tp1223
tp1224
I2
s((I10
tp1225
(I110
tp1226
tp1227
I2
s((I18
tp1228
(I117
tp1229
tp1230
I2
s((I3
tp1231
(I19
tp1232
tp1233
I2
s((I17
tp1234
(I116
tp1235
tp1236
I2
s((I4
tp1237
(I121
tp1238
tp1239
I2
s((I14
tp1240
(I120
tp1241
tp1242
I1
s((I15
tp1243
(I122
tp1244
tp1245
I2
s((I101
tp1246
(I111
tp1247
tp1248
I2
s((I0
tp1249
(I18
tp1250
tp1251
I2
s((I16
tp1252
(I19
tp1253
tp1254
I1
s((I7
tp1255
(I124
tp1256
tp1257
I1
s((I119
tp1258
(I122
tp1259
tp1260
I2
s((I0
tp1261
(I117
tp1262
tp1263
I2
s((I111
tp1264
(I124
tp1265
tp1266
I1
s((I20
tp1267
(I106
tp1268
tp1269
I1
s((I8
tp1270
(I107
tp1271
tp1272
I1
s((I6
tp1273
(I119
tp1274
tp1275
I2
s((I1
tp1276
(I11
tp1277
tp1278
I2
s((I112
tp1279
(I115
tp1280
tp1281
I2
s((I1
tp1282
(I100
tp1283
tp1284
I1
s((I102
tp1285
(I114
tp1286
tp1287
I2
s((I111
tp1288
(I120
tp1289
tp1290
I1
s((I19
tp1291
(I121
tp1292
tp1293
I2
s((I110
tp1294
(I119
tp1295
tp1296
I2
s((I13
tp1297
(I16
tp1298
tp1299
I1
s((I7
tp1300
(I120
tp1301
tp1302
I1
s((I103
tp1303
(I115
tp1304
tp1305
I2
s((I8
tp1306
(I19
tp1307
tp1308
I1
s((I16
tp1309
(I120
tp1310
tp1311
I1
s((I5
tp1312
(I10
tp1313
tp1314
I2
s((I2
tp1315
(I14
tp1316
tp1317
I2
s((I1
tp1318
(I21
tp1319
tp1320
I2
s((I3
tp1321
(I8
tp1322
tp1323
I2
s((I1
tp1324
(I17
tp1325
tp1326
I2
s((I4
tp1327
(I9
tp1328
tp1329
I2
s((I102
tp1330
(I124
tp1331
tp1332
I2
s((I11
tp1333
(I106
tp1334
tp1335
I1
s((I17
tp1336
(I111
tp1337
tp1338
I1
s((I12
tp1339
(I100
tp1340
tp1341
I1
s((I100
tp1342
(I113
tp1343
tp1344
I2
s((I103
tp1345
(I110
tp1346
tp1347
I2
s((I4
tp1348
(I5
tp1349
tp1350
I1
s((I18
tp1351
(I20
tp1352
tp1353
I2
s((I103
tp1354
(I120
tp1355
tp1356
I2
s((I0
tp1357
(I122
tp1358
tp1359
I2
s((I3
tp1360
(I18
tp1361
tp1362
I0
s((I112
tp1363
(I120
tp1364
tp1365
I0
s((I102
tp1366
(I119
tp1367
tp1368
I2
s((I6
tp1369
(I14
tp1370
tp1371
I2
s((I0
tp1372
(I19
tp1373
tp1374
I2
s((I20
tp1375
(I109
tp1376
tp1377
I1
s((I11
tp1378
(I101
tp1379
tp1380
I1
s((I9
tp1381
(I21
tp1382
tp1383
I1
s((I2
tp1384
(I18
tp1385
tp1386
I0
s((I2
tp1387
(I102
tp1388
tp1389
I2
s((I4
tp1390
(I106
tp1391
tp1392
I1
s((I19
tp1393
(I101
tp1394
tp1395
I1
s((I110
tp1396
(I124
tp1397
tp1398
I1
s((I4
tp1399
(I7
tp1400
tp1401
I2
s((I107
tp1402
(I113
tp1403
tp1404
I1
s((I11
tp1405
(I103
tp1406
tp1407
I1
s((I7
tp1408
(I10
tp1409
tp1410
I1
s((I5
tp1411
(I118
tp1412
tp1413
I2
s((I107
tp1414
(I121
tp1415
tp1416
I2
s((I10
tp1417
(I21
tp1418
tp1419
I1
s((I8
tp1420
(I122
tp1421
tp1422
I0
s((I100
tp1423
(I119
tp1424
tp1425
I2
s((I103
tp1426
(I117
tp1427
tp1428
I2
s((I6
tp1429
(I8
tp1430
tp1431
I2
s((I2
tp1432
(I101
tp1433
tp1434
I0
s((I0
tp1435
(I124
tp1436
tp1437
I2
s((I108
tp1438
(I113
tp1439
tp1440
I1
s((I19
tp1441
(I112
tp1442
tp1443
I2
s((I1
tp1444
(I112
tp1445
tp1446
I2
s((I0
tp1447
(I111
tp1448
tp1449
I2
s((I9
tp1450
(I125
tp1451
tp1452
I0
s((I15
tp1453
(I102
tp1454
tp1455
I1
s((I4
tp1456
(I124
tp1457
tp1458
I2
s((I15
tp1459
(I100
tp1460
tp1461
I1
s((I15
tp1462
(I107
tp1463
tp1464
I1
s((I110
tp1465
(I121
tp1466
tp1467
I2
s((I15
tp1468
(I105
tp1469
tp1470
I1
s((I17
tp1471
(I106
tp1472
tp1473
I1
s((I118
tp1474
(I124
tp1475
tp1476
I1
s((I103
tp1477
(I112
tp1478
tp1479
I2
s((I107
tp1480
(I111
tp1481
tp1482
I2
s((I10
tp1483
(I117
tp1484
tp1485
I2
s((I101
tp1486
(I115
tp1487
tp1488
I2
s((I3
tp1489
(I125
tp1490
tp1491
I2
s((I104
tp1492
(I114
tp1493
tp1494
I2
s((I0
tp1495
(I123
tp1496
tp1497
I2
s((I3
tp1498
(I17
tp1499
tp1500
I2
s((I15
tp1501
(I19
tp1502
tp1503
I1
s((I114
tp1504
(I125
tp1505
tp1506
I1
s((I8
tp1507
(I124
tp1508
tp1509
I1
s((I17
tp1510
(I18
tp1511
tp1512
I1
s((I9
tp1513
(I116
tp1514
tp1515
I2
s((I16
tp1516
(I100
tp1517
tp1518
I1
s((I112
tp1519
(I124
tp1520
tp1521
I2
s((I19
tp1522
(I108
tp1523
tp1524
I2
s((I0
tp1525
(I113
tp1526
tp1527
I2
s((I18
tp1528
(I109
tp1529
tp1530
I2
s((I2
tp1531
(I122
tp1532
tp1533
I2
s((I12
tp1534
(I109
tp1535
tp1536
I1
s((I6
tp1537
(I106
tp1538
tp1539
I1
s((I0
tp1540
(I10
tp1541
tp1542
I2
s((I1
tp1543
(I4
tp1544
tp1545
I2
s((I8
tp1546
(I21
tp1547
tp1548
I1
s((I7
tp1549
(I116
tp1550
tp1551
I2
s((I17
tp1552
(I121
tp1553
tp1554
I2
s((I113
tp1555
(I117
tp1556
tp1557
I2
s((I111
tp1558
(I114
tp1559
tp1560
I2
s((I108
tp1561
(I119
tp1562
tp1563
I2
s((I105
tp1564
(I114
tp1565
tp1566
I2
s((I14
tp1567
(I20
tp1568
tp1569
I1
s((I105
tp1570
(I124
tp1571
tp1572
I2
s((I100
tp1573
(I125
tp1574
tp1575
I2
s((I103
tp1576
(I123
tp1577
tp1578
I2
s((I4
tp1579
(I8
tp1580
tp1581
I2
s((I14
tp1582
(I105
tp1583
tp1584
I1
s((I21
tp1585
(I112
tp1586
tp1587
I1
s((I107
tp1588
(I123
tp1589
tp1590
I2
s((I18
tp1591
(I112
tp1592
tp1593
I2
s((I4
tp1594
(I109
tp1595
tp1596
I2
s((I10
tp1597
(I118
tp1598
tp1599
I2
s((I110
tp1600
(I115
tp1601
tp1602
I2
s((I10
tp1603
(I16
tp1604
tp1605
I2
s((I2
tp1606
(I125
tp1607
tp1608
I2
s((I1
tp1609
(I111
tp1610
tp1611
I2
s((I3
tp1612
(I16
tp1613
tp1614
I2
s((I13
tp1615
(I116
tp1616
tp1617
I0
s((I104
tp1618
(I119
tp1619
tp1620
I2
s((I2
tp1621
(I9
tp1622
tp1623
I2
s((I113
tp1624
(I124
tp1625
tp1626
I2
s((I19
tp1627
(I120
tp1628
tp1629
I2
s((I11
tp1630
(I118
tp1631
tp1632
I0
s((I119
tp1633
(I120
tp1634
tp1635
I1
s((I21
tp1636
(I105
tp1637
tp1638
I1
s((I2
tp1639
(I114
tp1640
tp1641
I2
s((I8
tp1642
(I120
tp1643
tp1644
I1
s((I111
tp1645
(I113
tp1646
tp1647
I1
s((I6
tp1648
(I11
tp1649
tp1650
I2
s((I13
tp1651
(I103
tp1652
tp1653
I1
s((I0
tp1654
(I15
tp1655
tp1656
I2
s((I15
tp1657
(I117
tp1658
tp1659
I2
s((I102
tp1660
(I115
tp1661
tp1662
I2
s((I101
tp1663
(I105
tp1664
tp1665
I1
s((I13
tp1666
(I102
tp1667
tp1668
I1
s((I4
tp1669
(I117
tp1670
tp1671
I2
s((I9
tp1672
(I13
tp1673
tp1674
I2
s((I17
tp1675
(I124
tp1676
tp1677
I1
s((I9
tp1678
(I111
tp1679
tp1680
I1
s((I18
tp1681
(I100
tp1682
tp1683
I1
s((I109
tp1684
(I124
tp1685
tp1686
I1
s((I16
tp1687
(I125
tp1688
tp1689
I1
s((I4
tp1690
(I118
tp1691
tp1692
I2
s((I121
tp1693
(I124
tp1694
tp1695
I1
s((I117
tp1696
(I123
tp1697
tp1698
I1
s((I116
tp1699
(I125
tp1700
tp1701
I1
s((I1
tp1702
(I16
tp1703
tp1704
I2
s((I107
tp1705
(I108
tp1706
tp1707
I2
s((I15
tp1708
(I119
tp1709
tp1710
I0
s((I108
tp1711
(I116
tp1712
tp1713
I2
s((I105
tp1714
(I118
tp1715
tp1716
I2
s((I10
tp1717
(I111
tp1718
tp1719
I1
s((I4
tp1720
(I6
tp1721
tp1722
I2
s((I8
tp1723
(I113
tp1724
tp1725
I1
s((I102
tp1726
(I120
tp1727
tp1728
I0
s((I8
tp1729
(I15
tp1730
tp1731
I0
s((I112
tp1732
(I114
tp1733
tp1734
I2
s((I10
tp1735
(I17
tp1736
tp1737
I2
s((I119
tp1738
(I124
tp1739
tp1740
I1
s((I0
tp1741
(I115
tp1742
tp1743
I2
s((I18
tp1744
(I108
tp1745
tp1746
I2
s((I21
tp1747
(I123
tp1748
tp1749
I1
s((I117
tp1750
(I124
tp1751
tp1752
I1
s((I0
tp1753
(I4
tp1754
tp1755
I2
s((I3
tp1756
(I11
tp1757
tp1758
I2
s((I15
tp1759
(I20
tp1760
tp1761
I2
s((I2
tp1762
(I21
tp1763
tp1764
I2
s((I117
tp1765
(I119
tp1766
tp1767
I1
s((I21
tp1768
(I104
tp1769
tp1770
I1
s((I101
tp1771
(I123
tp1772
tp1773
I2
s((I100
tp1774
(I123
tp1775
tp1776
I2
s((I18
tp1777
(I111
tp1778
tp1779
I2
s((I104
tp1780
(I122
tp1781
tp1782
I2
s((I7
tp1783
(I117
tp1784
tp1785
I2
s((I21
tp1786
(I103
tp1787
tp1788
I1
s((I21
tp1789
(I120
tp1790
tp1791
I1
s((I103
tp1792
(I104
tp1793
tp1794
I1
s((I7
tp1795
(I20
tp1796
tp1797
I2
s((I6
tp1798
(I121
tp1799
tp1800
I2
s((I14
tp1801
(I19
tp1802
tp1803
I1
s((I13
tp1804
(I122
tp1805
tp1806
I1
s((I104
tp1807
(I108
tp1808
tp1809
I2
s((I11
tp1810
(I21
tp1811
tp1812
I1
s((I11
tp1813
(I20
tp1814
tp1815
I1
s((I17
tp1816
(I100
tp1817
tp1818
I1
s((I15
tp1819
(I101
tp1820
tp1821
I1
s((I14
tp1822
(I104
tp1823
tp1824
I1
s((I12
tp1825
(I107
tp1826
tp1827
I1
s((I109
tp1828
(I119
tp1829
tp1830
I1
s((I12
tp1831
(I105
tp1832
tp1833
I1
s((I12
tp1834
(I101
tp1835
tp1836
I1
s((I7
tp1837
(I108
tp1838
tp1839
I1
s((I122
tp1840
(I125
tp1841
tp1842
I1
s((I110
tp1843
(I114
tp1844
tp1845
I1
s((I19
tp1846
(I103
tp1847
tp1848
I1
s((I16
tp1849
(I116
tp1850
tp1851
I2
s((I106
tp1852
(I119
tp1853
tp1854
I2
s((I114
tp1855
(I121
tp1856
tp1857
I2
s((I5
tp1858
(I114
tp1859
tp1860
I2
s((I100
tp1861
(I114
tp1862
tp1863
I2
s((I12
tp1864
(I19
tp1865
tp1866
I1
s((I15
tp1867
(I123
tp1868
tp1869
I1
s((I4
tp1870
(I20
tp1871
tp1872
I2
s((I21
tp1873
(I122
tp1874
tp1875
I2
s((I13
tp1876
(I21
tp1877
tp1878
I1
s((I1
tp1879
(I125
tp1880
tp1881
I2
s((I11
tp1882
(I16
tp1883
tp1884
I1
s((I20
tp1885
(I113
tp1886
tp1887
I1
s((I107
tp1888
(I115
tp1889
tp1890
I2
s((I19
tp1891
(I105
tp1892
tp1893
I1
s((I5
tp1894
(I101
tp1895
tp1896
I1
s((I107
tp1897
(I118
tp1898
tp1899
I2
s((I4
tp1900
(I105
tp1901
tp1902
I1
s((I10
tp1903
(I106
tp1904
tp1905
I1
s((I15
tp1906
(I108
tp1907
tp1908
I1
s((I15
tp1909
(I113
tp1910
tp1911
I1
s((I17
tp1912
(I117
tp1913
tp1914
I2
s((I6
tp1915
(I111
tp1916
tp1917
I1
s((I20
tp1918
(I123
tp1919
tp1920
I1
s((I102
tp1921
(I108
tp1922
tp1923
I2
s((I13
tp1924
(I19
tp1925
tp1926
I1
s((I101
tp1927
(I106
tp1928
tp1929
I1
s((I13
tp1930
(I117
tp1931
tp1932
I0
s((I4
tp1933
(I19
tp1934
tp1935
I2
s((I14
tp1936
(I122
tp1937
tp1938
I1
s((I112
tp1939
(I117
tp1940
tp1941
I2
s((I4
tp1942
(I14
tp1943
tp1944
I2
s((I10
tp1945
(I109
tp1946
tp1947
I2
s((I5
tp1948
(I121
tp1949
tp1950
I2
s((I111
tp1951
(I121
tp1952
tp1953
I2
s((I100
tp1954
(I105
tp1955
tp1956
I0
s((I100
tp1957
(I118
tp1958
tp1959
I2
s((I11
tp1960
(I105
tp1961
tp1962
I1
s((I105
tp1963
(I113
tp1964
tp1965
I2
s((I115
tp1966
(I118
tp1967
tp1968
I0
s((I101
tp1969
(I113
tp1970
tp1971
I2
s((I4
tp1972
(I103
tp1973
tp1974
I1
s((I13
tp1975
(I107
tp1976
tp1977
I1
s((I12
tp1978
(I110
tp1979
tp1980
I1
s((I0
tp1981
(I110
tp1982
tp1983
I2
s((I9
tp1984
(I103
tp1985
tp1986
I1
s((I10
tp1987
(I11
tp1988
tp1989
I2
s((I109
tp1990
(I116
tp1991
tp1992
I2
s((I120
tp1993
(I124
tp1994
tp1995
I2
s((I120
tp1996
(I125
tp1997
tp1998
I2
s((I11
tp1999
(I19
tp2000
tp2001
I1
s((I0
tp2002
(I16
tp2003
tp2004
I2
s((I8
tp2005
(I103
tp2006
tp2007
I1
s((I1
tp2008
(I106
tp2009
tp2010
I0
s((I17
tp2011
(I103
tp2012
tp2013
I1
s((I5
tp2014
(I108
tp2015
tp2016
I2
s((I9
tp2017
(I120
tp2018
tp2019
I1
s((I3
tp2020
(I107
tp2021
tp2022
I2
s((I8
tp2023
(I104
tp2024
tp2025
I1
s((I2
tp2026
(I117
tp2027
tp2028
I2
s((I20
tp2029
(I105
tp2030
tp2031
I1
s((I7
tp2032
(I118
tp2033
tp2034
I2
s((I5
tp2035
(I123
tp2036
tp2037
I2
s((I10
tp2038
(I107
tp2039
tp2040
I1
s((I106
tp2041
(I116
tp2042
tp2043
I2
s((I102
tp2044
(I104
tp2045
tp2046
I1
s((I4
tp2047
(I110
tp2048
tp2049
I2
s((I14
tp2050
(I18
tp2051
tp2052
I1
s((I9
tp2053
(I117
tp2054
tp2055
I2
s((I8
tp2056
(I16
tp2057
tp2058
I1
s((I12
tp2059
(I114
tp2060
tp2061
I1
s((I6
tp2062
(I105
tp2063
tp2064
I1
s((I15
tp2065
(I120
tp2066
tp2067
I1
s((I9
tp2068
(I20
tp2069
tp2070
I2
s((I9
tp2071
(I118
tp2072
tp2073
I2
s((I104
tp2074
(I124
tp2075
tp2076
I2
s((I2
tp2077
(I113
tp2078
tp2079
I2
s((I18
tp2080
(I103
tp2081
tp2082
I1
s((I5
tp2083
(I9
tp2084
tp2085
I2
s((I7
tp2086
(I109
tp2087
tp2088
I2
s((I106
tp2089
(I107
tp2090
tp2091
I2
s((I10
tp2092
(I116
tp2093
tp2094
I2
s((I102
tp2095
(I113
tp2096
tp2097
I2
s((I100
tp2098
(I124
tp2099
tp2100
I2
s((I103
tp2101
(I108
tp2102
tp2103
I2
s((I11
tp2104
(I100
tp2105
tp2106
I1
s((I114
tp2107
(I117
tp2108
tp2109
I2
s((I105
tp2110
(I107
tp2111
tp2112
I2
s((I105
tp2113
(I117
tp2114
tp2115
I2
s((I9
tp2116
(I108
tp2117
tp2118
I2
s((I111
tp2119
(I117
tp2120
tp2121
I2
s((I106
tp2122
(I110
tp2123
tp2124
I2
s((I1
tp2125
(I105
tp2126
tp2127
I0
s((I113
tp2128
(I114
tp2129
tp2130
I2
s((I11
tp2131
(I18
tp2132
tp2133
I1
s((I0
tp2134
(I17
tp2135
tp2136
I2
s((I6
tp2137
(I120
tp2138
tp2139
I1
s((I21
tp2140
(I119
tp2141
tp2142
I2
s((I117
tp2143
(I121
tp2144
tp2145
I1
s((I12
tp2146
(I119
tp2147
tp2148
I1
s((I6
tp2149
(I110
tp2150
tp2151
I0
s((I5
tp2152
(I12
tp2153
tp2154
I2
s((I3
tp2155
(I7
tp2156
tp2157
I2
s((I102
tp2158
(I121
tp2159
tp2160
I2
s((I4
tp2161
(I104
tp2162
tp2163
I1
s((I3
tp2164
(I106
tp2165
tp2166
I1
s((I12
tp2167
(I104
tp2168
tp2169
I1
s((I21
tp2170
(I100
tp2171
tp2172
I1
s((I113
tp2173
(I125
tp2174
tp2175
I2
s((I5
tp2176
(I104
tp2177
tp2178
I1
s((I108
tp2179
(I124
tp2180
tp2181
I1
s((I106
tp2182
(I114
tp2183
tp2184
I2
s((I17
tp2185
(I109
tp2186
tp2187
I2
s((I8
tp2188
(I123
tp2189
tp2190
I1
s((I100
tp2191
(I117
tp2192
tp2193
I2
s((I4
tp2194
(I18
tp2195
tp2196
I1
s((I17
tp2197
(I19
tp2198
tp2199
I1
s((I104
tp2200
(I117
tp2201
tp2202
I2
s((I102
tp2203
(I110
tp2204
tp2205
I2
s((I11
tp2206
(I15
tp2207
tp2208
I1
s((I107
tp2209
(I110
tp2210
tp2211
I2
s((I113
tp2212
(I123
tp2213
tp2214
I2
s((I108
tp2215
(I111
tp2216
tp2217
I1
s((I5
tp2218
(I16
tp2219
tp2220
I2
s((I109
tp2221
(I112
tp2222
tp2223
I1
s((I113
tp2224
(I122
tp2225
tp2226
I2
s((I6
tp2227
(I103
tp2228
tp2229
I1
s((I13
tp2230
(I101
tp2231
tp2232
I1
s((I2
tp2233
(I13
tp2234
tp2235
I2
s((I2
tp2236
(I15
tp2237
tp2238
I2
s((I8
tp2239
(I10
tp2240
tp2241
I1
s((I19
tp2242
(I106
tp2243
tp2244
I1
s((I116
tp2245
(I124
tp2246
tp2247
I1
s((I101
tp2248
(I114
tp2249
tp2250
I2
s((I5
tp2251
(I21
tp2252
tp2253
I2
s((I103
tp2254
(I114
tp2255
tp2256
I2
s((I20
tp2257
(I120
tp2258
tp2259
I1
s((I100
tp2260
(I110
tp2261
tp2262
I2
s((I9
tp2263
(I15
tp2264
tp2265
I2
s((I111
tp2266
(I123
tp2267
tp2268
I0
s((I8
tp2269
(I100
tp2270
tp2271
I1
s((I21
tp2272
(I118
tp2273
tp2274
I2
s((I6
tp2275
(I13
tp2276
tp2277
I2
s((I12
tp2278
(I116
tp2279
tp2280
I0
s((I20
tp2281
(I104
tp2282
tp2283
I1
s((I115
tp2284
(I123
tp2285
tp2286
I1
s((I3
tp2287
(I105
tp2288
tp2289
I1
s((I17
tp2290
(I113
tp2291
tp2292
I1
s((I8
tp2293
(I20
tp2294
tp2295
I2
s((I10
tp2296
(I15
tp2297
tp2298
I2
s((I4
tp2299
(I102
tp2300
tp2301
I1
s((I2
tp2302
(I17
tp2303
tp2304
I2
s((I14
tp2305
(I17
tp2306
tp2307
I1
s((I16
tp2308
(I117
tp2309
tp2310
I2
s((I116
tp2311
(I117
tp2312
tp2313
I0
s((I12
tp2314
(I120
tp2315
tp2316
I1
s((I108
tp2317
(I114
tp2318
tp2319
I2
s((I103
tp2320
(I111
tp2321
tp2322
I2
s((I14
tp2323
(I118
tp2324
tp2325
I0
s((I112
tp2326
(I121
tp2327
tp2328
I2
s((I0
tp2329
(I100
tp2330
tp2331
I0
s((I0
tp2332
(I114
tp2333
tp2334
I2
s((I7
tp2335
(I110
tp2336
tp2337
I2
s((I10
tp2338
(I102
tp2339
tp2340
I1
s((I5
tp2341
(I119
tp2342
tp2343
I2
s((I19
tp2344
(I113
tp2345
tp2346
I1
s((I7
tp2347
(I125
tp2348
tp2349
I1
s((I21
tp2350
(I109
tp2351
tp2352
I2
s((I9
tp2353
(I109
tp2354
tp2355
I2
s((I14
tp2356
(I103
tp2357
tp2358
I1
s((I12
tp2359
(I18
tp2360
tp2361
I1
s((I16
tp2362
(I109
tp2363
tp2364
I2
s((I9
tp2365
(I110
tp2366
tp2367
I2
s((I1
tp2368
(I9
tp2369
tp2370
I2
s((I20
tp2371
(I115
tp2372
tp2373
I2
s((I5
tp2374
(I15
tp2375
tp2376
I2
s((I20
tp2377
(I119
tp2378
tp2379
I1
s((I4
tp2380
(I21
tp2381
tp2382
I2
s((I0
tp2383
(I120
tp2384
tp2385
I2
s((I115
tp2386
(I125
tp2387
tp2388
I1
s((I11
tp2389
(I116
tp2390
tp2391
I0
s((I10
tp2392
(I104
tp2393
tp2394
I1
s((I17
tp2395
(I21
tp2396
tp2397
I2
s((I8
tp2398
(I125
tp2399
tp2400
I1
s((I8
tp2401
(I110
tp2402
tp2403
I1
s((I1
tp2404
(I120
tp2405
tp2406
I2
s((I111
tp2407
(I125
tp2408
tp2409
I0
s((I3
tp2410
(I104
tp2411
tp2412
I0
s((I19
tp2413
(I111
tp2414
tp2415
I2
s((I19
tp2416
(I109
tp2417
tp2418
I2
s((I1
tp2419
(I109
tp2420
tp2421
I2
s((I101
tp2422
(I104
tp2423
tp2424
I0
s((I110
tp2425
(I122
tp2426
tp2427
I2
s((I11
tp2428
(I119
tp2429
tp2430
I1
s((I18
tp2431
(I121
tp2432
tp2433
I2
s((I16
tp2434
(I123
tp2435
tp2436
I1
s((I3
tp2437
(I15
tp2438
tp2439
I2
s((I12
tp2440
(I115
tp2441
tp2442
I0
s((I3
tp2443
(I114
tp2444
tp2445
I2
s((I1
tp2446
(I114
tp2447
tp2448
I2
s((I12
tp2449
(I21
tp2450
tp2451
I1
s((I8
tp2452
(I14
tp2453
tp2454
I2
s((I107
tp2455
(I125
tp2456
tp2457
I2
s((I18
tp2458
(I102
tp2459
tp2460
I1
s((I13
tp2461
(I104
tp2462
tp2463
I1
s((I111
tp2464
(I116
tp2465
tp2466
I2
s((I105
tp2467
(I123
tp2468
tp2469
I2
s((I106
tp2470
(I109
tp2471
tp2472
I2
s((I16
tp2473
(I108
tp2474
tp2475
I1
s((I18
tp2476
(I106
tp2477
tp2478
I1
s((I103
tp2479
(I125
tp2480
tp2481
I2
s((I100
tp2482
(I109
tp2483
tp2484
I2
s((I100
tp2485
(I106
tp2486
tp2487
I2
s((I2
tp2488
(I109
tp2489
tp2490
I2
s((I106
tp2491
(I118
tp2492
tp2493
I2
s((I2
tp2494
(I111
tp2495
tp2496
I2
s((I1
tp2497
(I104
tp2498
tp2499
I0
s((I0
tp2500
(I102
tp2501
tp2502
I2
s((I21
tp2503
(I117
tp2504
tp2505
I2
s((I1
tp2506
(I116
tp2507
tp2508
I2
s((I10
tp2509
(I122
tp2510
tp2511
I2
s((I4
tp2512
(I115
tp2513
tp2514
I2
s((I1
tp2515
(I5
tp2516
tp2517
I2
s((I14
tp2518
(I21
tp2519
tp2520
I1
s((I115
tp2521
(I120
tp2522
tp2523
I1
s((I0
tp2524
(I14
tp2525
tp2526
I2
s((I17
tp2527
(I104
tp2528
tp2529
I1
s((I101
tp2530
(I102
tp2531
tp2532
I2
s((I10
tp2533
(I105
tp2534
tp2535
I1
s((I15
tp2536
(I111
tp2537
tp2538
I1
s((I101
tp2539
(I122
tp2540
tp2541
I2
s((I119
tp2542
(I123
tp2543
tp2544
I1
s((I3
tp2545
(I102
tp2546
tp2547
I2
s((I1
tp2548
(I123
tp2549
tp2550
I2
s((I19
tp2551
(I123
tp2552
tp2553
I2
s((I16
tp2554
(I112
tp2555
tp2556
I1
s((I14
tp2557
(I16
tp2558
tp2559
I1
s((I6
tp2560
(I17
tp2561
tp2562
I0
s((I8
tp2563
(I117
tp2564
tp2565
I2
s((I106
tp2566
(I121
tp2567
tp2568
I2
s((I9
tp2569
(I101
tp2570
tp2571
I1
s((I11
tp2572
(I115
tp2573
tp2574
I0
s((I14
tp2575
(I117
tp2576
tp2577
I0
s((I4
tp2578
(I10
tp2579
tp2580
I2
s((I3
tp2581
(I113
tp2582
tp2583
I2
s((I107
tp2584
(I120
tp2585
tp2586
I1
s((I19
tp2587
(I115
tp2588
tp2589
I2
s((I17
tp2590
(I108
tp2591
tp2592
I2
s((I104
tp2593
(I109
tp2594
tp2595
I2
s((I18
tp2596
(I118
tp2597
tp2598
I2
s((I14
tp2599
(I107
tp2600
tp2601
I1
s((I110
tp2602
(I116
tp2603
tp2604
I2
s((I14
tp2605
(I102
tp2606
tp2607
I1
s((I19
tp2608
(I119
tp2609
tp2610
I2
s((I6
tp2611
(I113
tp2612
tp2613
I1
s((I3
tp2614
(I123
tp2615
tp2616
I2
s((I11
tp2617
(I104
tp2618
tp2619
I1
s((I20
tp2620
(I114
tp2621
tp2622
I1
s((I100
tp2623
(I112
tp2624
tp2625
I2
s((I10
tp2626
(I123
tp2627
tp2628
I1
s((I103
tp2629
(I121
tp2630
tp2631
I2
s((I5
tp2632
(I113
tp2633
tp2634
I2
s((I0
tp2635
(I3
tp2636
tp2637
I2
s((I9
tp2638
(I121
tp2639
tp2640
I2
s((I102
tp2641
(I122
tp2642
tp2643
I2
s((I21
tp2644
(I107
tp2645
tp2646
I1
s((I16
tp2647
(I118
tp2648
tp2649
I2
s((I17
tp2650
(I112
tp2651
tp2652
I1
s((I3
tp2653
(I101
tp2654
tp2655
I0
s((I6
tp2656
(I123
tp2657
tp2658
I1
s((I7
tp2659
(I21
tp2660
tp2661
I1
s((I16
tp2662
(I113
tp2663
tp2664
I1
s((I5
tp2665
(I103
tp2666
tp2667
I0
s((I116
tp2668
(I121
tp2669
tp2670
I1
s((I1
tp2671
(I13
tp2672
tp2673
I2
s((I9
tp2674
(I12
tp2675
tp2676
I2
s((I13
tp2677
(I18
tp2678
tp2679
I1
s((I0
tp2680
(I103
tp2681
tp2682
I2
s((I108
tp2683
(I112
tp2684
tp2685
I1
s((I4
tp2686
(I17
tp2687
tp2688
I2
s((I11
tp2689
(I114
tp2690
tp2691
I1
s((I105
tp2692
(I121
tp2693
tp2694
I2
s((I110
tp2695
(I118
tp2696
tp2697
I2
s((I103
tp2698
(I118
tp2699
tp2700
I2
s((I102
tp2701
(I125
tp2702
tp2703
I2
s((I122
tp2704
(I123
tp2705
tp2706
I1
s((I112
tp2707
(I118
tp2708
tp2709
I2
s((I8
tp2710
(I13
tp2711
tp2712
I2
s((I101
tp2713
(I112
tp2714
tp2715
I2
s((I13
tp2716
(I121
tp2717
tp2718
I1
s((I7
tp2719
(I12
tp2720
tp2721
I2
s((I18
tp2722
(I21
tp2723
tp2724
I2
s((I18
tp2725
(I119
tp2726
tp2727
I2
s((I0
tp2728
(I21
tp2729
tp2730
I2
s((I18
tp2731
(I113
tp2732
tp2733
I2
s((I118
tp2734
(I119
tp2735
tp2736
I1
s((I6
tp2737
(I112
tp2738
tp2739
I1
s((I21
tp2740
(I111
tp2741
tp2742
I1
s((I14
tp2743
(I119
tp2744
tp2745
I1
s((I120
tp2746
(I122
tp2747
tp2748
I2
s((I3
tp2749
(I122
tp2750
tp2751
I2
s((I6
tp2752
(I102
tp2753
tp2754
I1
s((I2
tp2755
(I11
tp2756
tp2757
I2
s((I4
tp2758
(I114
tp2759
tp2760
I2
s((I1
tp2761
(I8
tp2762
tp2763
I2
s((I16
tp2764
(I107
tp2765
tp2766
I1
s((I19
tp2767
(I124
tp2768
tp2769
I1
s((I13
tp2770
(I113
tp2771
tp2772
I1
s((I4
tp2773
(I15
tp2774
tp2775
I2
s((I16
tp2776
(I21
tp2777
tp2778
I1
s((I7
tp2779
(I100
tp2780
tp2781
I1
s((I11
tp2782
(I111
tp2783
tp2784
I1
s((I5
tp2785
(I110
tp2786
tp2787
I2
s((I111
tp2788
(I118
tp2789
tp2790
I2
s((I20
tp2791
(I102
tp2792
tp2793
I1
s((I8
tp2794
(I105
tp2795
tp2796
I1
s((I16
tp2797
(I124
tp2798
tp2799
I1
s((I10
tp2800
(I13
tp2801
tp2802
I2
s((I8
tp2803
(I114
tp2804
tp2805
I1
s((I0
tp2806
(I125
tp2807
tp2808
I2
s((I21
tp2809
(I106
tp2810
tp2811
I1
s((I17
tp2812
(I119
tp2813
tp2814
I2
s((I16
tp2815
(I119
tp2816
tp2817
I2
s((I3
tp2818
(I100
tp2819
tp2820
I1
s((I116
tp2821
(I119
tp2822
tp2823
I1
s((I112
tp2824
(I123
tp2825
tp2826
I2
s((I108
tp2827
(I110
tp2828
tp2829
I2
s((I8
tp2830
(I17
tp2831
tp2832
I1
s((I0
tp2833
(I6
tp2834
tp2835
I2
s((I5
tp2836
(I14
tp2837
tp2838
I2
s((I109
tp2839
(I121
tp2840
tp2841
I2
s((I12
tp2842
(I15
tp2843
tp2844
I1
s((I121
tp2845
(I122
tp2846
tp2847
I0
s((I3
tp2848
(I110
tp2849
tp2850
I2
s((I108
tp2851
(I120
tp2852
tp2853
I1
s((I100
tp2854
(I122
tp2855
tp2856
I2
s((I113
tp2857
(I116
tp2858
tp2859
I2
s((I5
tp2860
(I11
tp2861
tp2862
I2
s((I0
tp2863
(I105
tp2864
tp2865
I0
s((I14
tp2866
(I106
tp2867
tp2868
I1
s((I2
tp2869
(I121
tp2870
tp2871
I2
s((I14
tp2872
(I101
tp2873
tp2874
I1
s((I103
tp2875
(I105
tp2876
tp2877
I1
s((I11
tp2878
(I102
tp2879
tp2880
I1
s((I114
tp2881
(I118
tp2882
tp2883
I2
s((I100
tp2884
(I102
tp2885
tp2886
I2
s((I6
tp2887
(I21
tp2888
tp2889
I1
s((I106
tp2890
(I122
tp2891
tp2892
I2
s((I105
tp2893
(I108
tp2894
tp2895
I2
s((I19
tp2896
(I117
tp2897
tp2898
I2
s((I3
tp2899
(I121
tp2900
tp2901
I2
s((I120
tp2902
(I121
tp2903
tp2904
I2
s((I108
tp2905
(I122
tp2906
tp2907
I2
s((I7
tp2908
(I121
tp2909
tp2910
I2
s((I121
tp2911
(I123
tp2912
tp2913
I1
s((I101
tp2914
(I121
tp2915
tp2916
I2
s((I18
tp2917
(I110
tp2918
tp2919
I2
s((I14
tp2920
(I115
tp2921
tp2922
I0
s((I18
tp2923
(I104
tp2924
tp2925
I1
s((I7
tp2926
(I106
tp2927
tp2928
I1
s((I1
tp2929
(I101
tp2930
tp2931
I0
s((I10
tp2932
(I20
tp2933
tp2934
I2
s((I12
tp2935
(I122
tp2936
tp2937
I1
s((I10
tp2938
(I14
tp2939
tp2940
I2
s((I1
tp2941
(I122
tp2942
tp2943
I2
s((I5
tp2944
(I106
tp2945
tp2946
I1
s((I21
tp2947
(I125
tp2948
tp2949
I0
s((I5
tp2950
(I124
tp2951
tp2952
I2
s((I20
tp2953
(I122
tp2954
tp2955
I0
s((I105
tp2956
(I122
tp2957
tp2958
I2
s((I17
tp2959
(I118
tp2960
tp2961
I2
s((I18
tp2962
(I124
tp2963
tp2964
I2
s((I1
tp2965
(I3
tp2966
tp2967
I2
s((I2
tp2968
(I103
tp2969
tp2970
I2
s((I17
tp2971
(I105
tp2972
tp2973
I1
s((I11
tp2974
(I120
tp2975
tp2976
I1
s((I116
tp2977
(I122
tp2978
tp2979
I1
s((I1
tp2980
(I15
tp2981
tp2982
I2
s((I14
tp2983
(I100
tp2984
tp2985
I1
s((I21
tp2986
(I115
tp2987
tp2988
I2
s((I5
tp2989
(I18
tp2990
tp2991
I2
s((I16
tp2992
(I110
tp2993
tp2994
I2
s((I3
tp2995
(I109
tp2996
tp2997
I2
s((I6
tp2998
(I115
tp2999
tp3000
I2
s((I8
tp3001
(I118
tp3002
tp3003
I2
s((I7
tp3004
(I13
tp3005
tp3006
I2
s((I0
tp3007
(I20
tp3008
tp3009
I2
s((I9
tp3010
(I122
tp3011
tp3012
I2
s((I12
tp3013
(I102
tp3014
tp3015
I1
s((I104
tp3016
(I107
tp3017
tp3018
I2
s((I1
tp3019
(I103
tp3020
tp3021
I2
s((I9
tp3022
(I102
tp3023
tp3024
I1
s((I13
tp3025
(I125
tp3026
tp3027
I1
s((I13
tp3028
(I124
tp3029
tp3030
I1
s((I101
tp3031
(I119
tp3032
tp3033
I2
s((I9
tp3034
(I113
tp3035
tp3036
I1
s((I106
tp3037
(I123
tp3038
tp3039
I2
s((I3
tp3040
(I119
tp3041
tp3042
I2
s((I15
tp3043
(I17
tp3044
tp3045
I1
s((I13
tp3046
(I110
tp3047
tp3048
I1
s((I2
tp3049
(I105
tp3050
tp3051
I0
s((I7
tp3052
(I101
tp3053
tp3054
I1
s((I2
tp3055
(I107
tp3056
tp3057
I2
s((I16
tp3058
(I20
tp3059
tp3060
I2
s((I9
tp3061
(I112
tp3062
tp3063
I1
s((I11
tp3064
(I117
tp3065
tp3066
I0
s((I12
tp3067
(I14
tp3068
tp3069
I0
s((I119
tp3070
(I125
tp3071
tp3072
I1
s((I0
tp3073
(I104
tp3074
tp3075
I2
s((I102
tp3076
(I123
tp3077
tp3078
I2
s((I16
tp3079
(I114
tp3080
tp3081
I2
s((I18
tp3082
(I105
tp3083
tp3084
I1
s((I20
tp3085
(I108
tp3086
tp3087
I1
s((I7
tp3088
(I11
tp3089
tp3090
I2
s((I17
tp3091
(I115
tp3092
tp3093
I2
s((I6
tp3094
(I124
tp3095
tp3096
I1
s((I4
tp3097
(I100
tp3098
tp3099
I1
s((I102
tp3100
(I111
tp3101
tp3102
I2
s((I21
tp3103
(I124
tp3104
tp3105
I1
s((I7
tp3106
(I112
tp3107
tp3108
I1
s((I103
tp3109
(I107
tp3110
tp3111
I2
s((I102
tp3112
(I109
tp3113
tp3114
I2
s((I1
tp3115
(I110
tp3116
tp3117
I2
s((I11
tp3118
(I125
tp3119
tp3120
I1
s((I18
tp3121
(I101
tp3122
tp3123
I1
s((I107
tp3124
(I117
tp3125
tp3126
I2
s((I111
tp3127
(I112
tp3128
tp3129
I1
s((I20
tp3130
(I118
tp3131
tp3132
I2
s((I118
tp3133
(I125
tp3134
tp3135
I1
s((I104
tp3136
(I111
tp3137
tp3138
I2
s((I10
tp3139
(I103
tp3140
tp3141
I1
s((I6
tp3142
(I20
tp3143
tp3144
I2
s((I5
tp3145
(I122
tp3146
tp3147
I2
s((I20
tp3148
(I117
tp3149
tp3150
I2
s((I106
tp3151
(I108
tp3152
tp3153
I2
s((I9
tp3154
(I100
tp3155
tp3156
I1
s((I3
tp3157
(I108
tp3158
tp3159
I2
s((I112
tp3160
(I122
tp3161
tp3162
I2
s((I117
tp3163
(I120
tp3164
tp3165
I1
s((I13
tp3166
(I123
tp3167
tp3168
I1
s((I3
tp3169
(I6
tp3170
tp3171
I2
s((I14
tp3172
(I124
tp3173
tp3174
I1
s((I13
tp3175
(I106
tp3176
tp3177
I1
s((I1
tp3178
(I113
tp3179
tp3180
I2
s((I6
tp3181
(I117
tp3182
tp3183
I2
s((I6
tp3184
(I12
tp3185
tp3186
I2
s((I2
tp3187
(I12
tp3188
tp3189
I2
s((I3
tp3190
(I118
tp3191
tp3192
I2
s((I116
tp3193
(I120
tp3194
tp3195
I1
s((I19
tp3196
(I107
tp3197
tp3198
I2
s((I108
tp3199
(I117
tp3200
tp3201
I2
s((I8
tp3202
(I9
tp3203
tp3204
I1
s((I14
tp3205
(I114
tp3206
tp3207
I1
s((I16
tp3208
(I104
tp3209
tp3210
I1
s((I103
tp3211
(I116
tp3212
tp3213
I2
s((I13
tp3214
(I105
tp3215
tp3216
I1
s((I16
tp3217
(I122
tp3218
tp3219
I2
s((I109
tp3220
(I120
tp3221
tp3222
I1
s((I109
tp3223
(I115
tp3224
tp3225
I2
s((I1
tp3226
(I107
tp3227
tp3228
I2
s((I21
tp3229
(I102
tp3230
tp3231
I1
s((I5
tp3232
(I117
tp3233
tp3234
I2
s((I20
tp3235
(I100
tp3236
tp3237
I1
s((I101
tp3238
(I109
tp3239
tp3240
I2
s((I110
tp3241
(I120
tp3242
tp3243
I1
s((I4
tp3244
(I11
tp3245
tp3246
I2
s((I104
tp3247
(I125
tp3248
tp3249
I2
s((I12
tp3250
(I106
tp3251
tp3252
I1
s((I13
tp3253
(I111
tp3254
tp3255
I1
s((I19
tp3256
(I122
tp3257
tp3258
I2
s((I2
tp3259
(I16
tp3260
tp3261
I2
s((I2
tp3262
(I3
tp3263
tp3264
I2
s((I1
tp3265
(I2
tp3266
tp3267
I2
s((I4
tp3268
(I119
tp3269
tp3270
I2
s((I2
tp3271
(I7
tp3272
tp3273
I2
s((I9
tp3274
(I14
tp3275
tp3276
I2
s((I15
tp3277
(I124
tp3278
tp3279
I1
s((I7
tp3280
(I14
tp3281
tp3282
I2
s((I9
tp3283
(I123
tp3284
tp3285
I1
s((I118
tp3286
(I123
tp3287
tp3288
I1
s((I6
tp3289
(I125
tp3290
tp3291
I1
s((I3
tp3292
(I103
tp3293
tp3294
I2
s((I13
tp3295
(I20
tp3296
tp3297
I1
s((I3
tp3298
(I5
tp3299
tp3300
I1
s((I1
tp3301
(I7
tp3302
tp3303
I2
s((I104
tp3304
(I105
tp3305
tp3306
I1
s((I7
tp3307
(I122
tp3308
tp3309
I2
s((I102
tp3310
(I106
tp3311
tp3312
I1
s((I20
tp3313
(I121
tp3314
tp3315
I0
s((I7
tp3316
(I102
tp3317
tp3318
I1
s((I3
tp3319
(I112
tp3320
tp3321
I2
s((I11
tp3322
(I17
tp3323
tp3324
I1
s((I100
tp3325
(I120
tp3326
tp3327
I2
s((I4
tp3328
(I113
tp3329
tp3330
I0
s((I108
tp3331
(I118
tp3332
tp3333
I2
s((I3
tp3334
(I120
tp3335
tp3336
I2
s((I13
tp3337
(I119
tp3338
tp3339
I1
s((I0
tp3340
(I12
tp3341
tp3342
I2
s((I9
tp3343
(I114
tp3344
tp3345
I2
s((I18
tp3346
(I116
tp3347
tp3348
I2
s((I104
tp3349
(I115
tp3350
tp3351
I2
s((I13
tp3352
(I118
tp3353
tp3354
I0
s((I16
tp3355
(I105
tp3356
tp3357
I1
s((I117
tp3358
(I125
tp3359
tp3360
I1
s((I105
tp3361
(I120
tp3362
tp3363
I2
s((I102
tp3364
(I116
tp3365
tp3366
I2
s((I123
tp3367
(I125
tp3368
tp3369
I2
s((I13
tp3370
(I15
tp3371
tp3372
I1
s((I7
tp3373
(I113
tp3374
tp3375
I1
s((I112
tp3376
(I125
tp3377
tp3378
I2
s((I0
tp3379
(I119
tp3380
tp3381
I2
s((I16
tp3382
(I121
tp3383
tp3384
I2
s.