(dp0
((I7
tp1
(I16
tp2
tp3
I1
s((I6
tp4
(I15
tp5
tp6
I1
s((I1
tp7
(I20
tp8
tp9
I2
s((I116
tp10
(I118
tp11
tp12
I0
s((I1
tp13
(I2
tp14
tp15
I2
s((I0
tp16
(I2
tp17
tp18
I2
s((I109
tp19
(I125
tp20
tp21
I1
s((I102
tp22
(I105
tp23
tp24
I1
s((I107
tp25
(I109
tp26
tp27
I2
s((I108
tp28
(I121
tp29
tp30
I1
s((I1
tp31
(I14
tp32
tp33
I2
s((I106
tp34
(I125
tp35
tp36
I2
s((I15
tp37
(I16
tp38
tp39
I1
s((I103
tp40
(I109
tp41
tp42
I2
s((I14
tp43
(I15
tp44
tp45
I1
s((I0
tp46
(I15
tp47
tp48
I2
s((I114
tp49
(I120
tp50
tp51
I1
s((I10
tp52
(I12
tp53
tp54
I2
s((I3
tp55
(I14
tp56
tp57
I2
s((I113
tp58
(I115
tp59
tp60
I2
s((I0
tp61
(I13
tp62
tp63
I2
s((I101
tp64
(I105
tp65
tp66
I2
s((I109
tp67
(I122
tp68
tp69
I1
s((I101
tp70
(I110
tp71
tp72
I2
s((I9
tp73
(I11
tp74
tp75
I2
s((I111
tp76
(I115
tp77
tp78
I2
s((I6
tp79
(I9
tp80
tp81
I2
s((I112
tp82
(I116
tp83
tp84
I2
s((I106
tp85
(I112
tp86
tp87
I2
s((I101
tp88
(I117
tp89
tp90
I2
s((I117
tp91
(I122
tp92
tp93
I1
s((I115
tp94
(I119
tp95
tp96
I1
s((I109
tp97
(I118
tp98
tp99
I2
s((I120
tp100
(I123
tp101
tp102
I2
s((I105
tp103
(I106
tp104
tp105
I1
s((I105
tp106
(I116
tp107
tp108
I2
s((I103
tp109
(I115
tp110
tp111
I2
s((I3
tp112
(I13
tp113
tp114
I2
s((I104
tp115
(I113
tp116
tp117
I1
s((I102
tp118
(I118
tp119
tp120
I2
s((I107
tp121
(I119
tp122
tp123
I2
s((I7
tp124
(I17
tp125
tp126
I2
s((I117
tp127
(I118
tp128
tp129
I0
s((I104
tp130
(I123
tp131
tp132
I2
s((I108
tp133
(I125
tp134
tp135
I1
s((I2
tp136
(I4
tp137
tp138
I2
s((I9
tp139
(I16
tp140
tp141
I1
s((I2
tp142
(I6
tp143
tp144
I2
s((I5
tp145
(I13
tp146
tp147
I2
s((I121
tp148
(I125
tp149
tp150
I1
s((I106
tp151
(I113
tp152
tp153
I2
s((I15
tp154
(I20
tp155
tp156
I2
s((I100
tp157
(I123
tp158
tp159
I2
s((I114
tp160
(I119
tp161
tp162
I1
s((I105
tp163
(I119
tp164
tp165
I2
s((I6
tp166
(I7
tp167
tp168
I2
s((I102
tp169
(I107
tp170
tp171
I2
s((I110
tp172
(I125
tp173
tp174
I2
s((I3
tp175
(I4
tp176
tp177
I2
s((I109
tp178
(I117
tp179
tp180
I2
s((I11
tp181
(I14
tp182
tp183
I0
s((I2
tp184
(I8
tp185
tp186
I2
s((I2
tp187
(I10
tp188
tp189
I2
s((I12
tp190
(I13
tp191
tp192
I0
s((I3
tp193
(I12
tp194
tp195
I2
s((I105
tp196
(I110
tp197
tp198
I2
s((I111
tp199
(I122
tp200
tp201
I2
s((I114
tp202
(I123
tp203
tp204
I2
s((I6
tp205
(I12
tp206
tp207
I2
s((I105
tp208
(I112
tp209
tp210
I2
s((I0
tp211
(I5
tp212
tp213
I2
s((I105
tp214
(I111
tp215
tp216
I2
s((I124
tp217
(I125
tp218
tp219
I1
s((I118
tp220
(I120
tp221
tp222
I1
s((I5
tp223
(I20
tp224
tp225
I2
s((I110
tp226
(I123
tp227
tp228
I1
s((I12
tp229
(I17
tp230
tp231
I1
s((I109
tp232
(I114
tp233
tp234
I1
s((I115
tp235
(I116
tp236
tp237
I0
s((I1
tp238
(I5
tp239
tp240
I2
s((I5
tp241
(I7
tp242
tp243
I2
s((I101
tp244
(I118
tp245
tp246
I2
s((I115
tp247
(I117
tp248
tp249
I0
s((I17
tp250
(I21
tp251
tp252
I1
s((I20
tp253
(I21
tp254
tp255
I1
s((I110
tp256
(I120
tp257
tp258
I1
s((I0
tp259
(I7
tp260
tp261
I2
s((I11
tp262
(I13
tp263
tp264
I0
s((I109
tp265
(I110
tp266
tp267
I1
s((I0
tp268
(I8
tp269
tp270
I2
s((I2
tp271
(I19
tp272
tp273
I2
s((I7
tp274
(I18
tp275
tp276
I1
s((I1
tp277
(I12
tp278
tp279
I2
s((I107
tp280
(I112
tp281
tp282
I1
s((I102
tp283
(I103
tp284
tp285
I1
s((I9
tp286
(I17
tp287
tp288
I1
s((I3
tp289
(I21
tp290
tp291
I2
s((I4
tp292
(I12
tp293
tp294
I2
s((I102
tp295
(I120
tp296
tp297
I1
s((I108
tp298
(I115
tp299
tp300
I2
s((I106
tp301
(I110
tp302
tp303
I2
s((I9
tp304
(I18
tp305
tp306
I1
s((I113
tp307
(I118
tp308
tp309
I2
s((I110
tp310
(I117
tp311
tp312
I2
s((I5
tp313
(I6
tp314
tp315
I2
s((I8
tp316
(I18
tp317
tp318
I1
s((I5
tp319
(I8
tp320
tp321
I2
s((I12
tp322
(I20
tp323
tp324
I1
s((I8
tp325
(I12
tp326
tp327
I2
s((I104
tp328
(I110
tp329
tp330
I2
s((I100
tp331
(I115
tp332
tp333
I2
s((I103
tp334
(I106
tp335
tp336
I1
s((I104
tp337
(I120
tp338
tp339
I1
s((I111
tp340
(I119
tp341
tp342
I1
s((I0
tp343
(I9
tp344
tp345
I2
s((I101
tp346
(I108
tp347
tp348
I2
s((I110
tp349
(I122
tp350
tp351
I0
s((I3
tp352
(I20
tp353
tp354
I2
s((I100
tp355
(I106
tp356
tp357
I1
s((I15
tp358
(I21
tp359
tp360
I1
s((I114
tp361
(I115
tp362
tp363
I2
s((I103
tp364
(I119
tp365
tp366
I2
s((I106
tp367
(I124
tp368
tp369
I2
s((I107
tp370
(I122
tp371
tp372
I2
s((I118
tp373
(I122
tp374
tp375
I1
s((I19
tp376
(I20
tp377
tp378
I2
s((I11
tp379
(I16
tp380
tp381
I1
s((I7
tp382
(I19
tp383
tp384
I1
s((I113
tp385
(I120
tp386
tp387
I2
s((I100
tp388
(I121
tp389
tp390
I2
s((I114
tp391
(I124
tp392
tp393
I2
s((I105
tp394
(I109
tp395
tp396
I2
s((I115
tp397
(I122
tp398
tp399
I1
s((I16
tp400
(I17
tp401
tp402
I2
s((I103
tp403
(I107
tp404
tp405
I2
s((I118
tp406
(I121
tp407
tp408
I1
s((I9
tp409
(I19
tp410
tp411
I1
s((I109
tp412
(I119
tp413
tp414
I1
s((I13
tp415
(I14
tp416
tp417
I0
s((I100
tp418
(I111
tp419
tp420
I2
s((I107
tp421
(I124
tp422
tp423
I2
s((I122
tp424
(I124
tp425
tp426
I1
s((I4
tp427
(I10
tp428
tp429
I2
s((I1
tp430
(I19
tp431
tp432
I2
s((I106
tp433
(I111
tp434
tp435
I2
s((I0
tp436
(I11
tp437
tp438
I2
s((I110
tp439
(I113
tp440
tp441
I1
s((I119
tp442
(I121
tp443
tp444
I2
s((I108
tp445
(I111
tp446
tp447
I1
s((I2
tp448
(I20
tp449
tp450
I2
s((I115
tp451
(I124
tp452
tp453
I1
s((I104
tp454
(I118
tp455
tp456
I2
s((I109
tp457
(I111
tp458
tp459
I1
s((I8
tp460
(I11
tp461
tp462
I2
s((I106
tp463
(I114
tp464
tp465
I2
s((I0
tp466
(I1
tp467
tp468
I2
s((I101
tp469
(I116
tp470
tp471
I2
s((I7
tp472
(I8
tp473
tp474
I2
s((I123
tp475
(I125
tp476
tp477
I1
s((I123
tp478
(I124
tp479
tp480
I1
s((I105
tp481
(I115
tp482
tp483
I2
s((I101
tp484
(I103
tp485
tp486
I2
s((I105
tp487
(I125
tp488
tp489
I2
s((I112
tp490
(I113
tp491
tp492
I1
s((I103
tp493
(I113
tp494
tp495
I1
s((I7
tp496
(I15
tp497
tp498
I1
s((I17
tp499
(I20
tp500
tp501
I2
s((I108
tp502
(I123
tp503
tp504
I1
s((I121
tp505
(I122
tp506
tp507
I2
s((I107
tp508
(I114
tp509
tp510
I2
s((I109
tp511
(I123
tp512
tp513
I1
s((I4
tp514
(I13
tp515
tp516
I2
s((I102
tp517
(I112
tp518
tp519
I2
s((I106
tp520
(I115
tp521
tp522
I2
s((I114
tp523
(I116
tp524
tp525
I2
s((I6
tp526
(I19
tp527
tp528
I2
s((I1
tp529
(I6
tp530
tp531
I2
s((I19
tp532
(I21
tp533
tp534
I1
s((I3
tp535
(I10
tp536
tp537
I2
s((I113
tp538
(I119
tp539
tp540
I2
s((I4
tp541
(I16
tp542
tp543
I2
s((I115
tp544
(I121
tp545
tp546
I1
s((I118
tp547
(I123
tp548
tp549
I1
s((I100
tp550
(I103
tp551
tp552
I2
s((I110
tp553
(I112
tp554
tp555
I1
s((I107
tp556
(I116
tp557
tp558
I2
s((I102
tp559
(I117
tp560
tp561
I2
s((I106
tp562
(I117
tp563
tp564
I2
s((I16
tp565
(I18
tp566
tp567
I2
s((I10
tp568
(I18
tp569
tp570
I2
s((I17
tp571
(I19
tp572
tp573
I2
s((I9
tp574
(I10
tp575
tp576
I1
s((I104
tp577
(I121
tp578
tp579
I2
s((I104
tp580
(I116
tp581
tp582
I2
s((I101
tp583
(I120
tp584
tp585
I1
s((I0
tp586
(I21
tp587
tp588
I2
s((I7
tp589
(I9
tp590
tp591
I2
s((I5
tp592
(I19
tp593
tp594
I2
s((I108
tp595
(I109
tp596
tp597
I0
s((I2
tp598
(I5
tp599
tp600
I2
s((I106
tp601
(I120
tp602
tp603
I2
s((I101
tp604
(I107
tp605
tp606
I2
s((I18
tp607
(I19
tp608
tp609
I2
s((I113
tp610
(I121
tp611
tp612
I2
s((I112
tp613
(I119
tp614
tp615
I2
s((I104
tp616
(I106
tp617
tp618
I1
s((I3
tp619
(I9
tp620
tp621
I2
s((I103
tp622
(I124
tp623
tp624
I2
s((I100
tp625
(I107
tp626
tp627
I2
s((I101
tp628
(I124
tp629
tp630
I2
s((I1
tp631
(I18
tp632
tp633
I2
s((I3
tp634
(I19
tp635
tp636
I2
s((I101
tp637
(I111
tp638
tp639
I2
s((I0
tp640
(I18
tp641
tp642
I2
s((I16
tp643
(I19
tp644
tp645
I2
s((I10
tp646
(I19
tp647
tp648
I2
s((I119
tp649
(I122
tp650
tp651
I2
s((I106
tp652
(I119
tp653
tp654
I2
s((I111
tp655
(I124
tp656
tp657
I2
s((I112
tp658
(I115
tp659
tp660
I2
s((I102
tp661
(I114
tp662
tp663
I2
s((I111
tp664
(I120
tp665
tp666
I1
s((I110
tp667
(I119
tp668
tp669
I1
s((I2
tp670
(I14
tp671
tp672
I2
s((I13
tp673
(I16
tp674
tp675
I1
s((I8
tp676
(I19
tp677
tp678
I1
s((I109
tp679
(I115
tp680
tp681
I2
s((I5
tp682
(I10
tp683
tp684
I2
s((I15
tp685
(I18
tp686
tp687
I2
s((I1
tp688
(I21
tp689
tp690
I2
s((I3
tp691
(I8
tp692
tp693
I2
s((I1
tp694
(I17
tp695
tp696
I2
s((I4
tp697
(I9
tp698
tp699
I2
s((I102
tp700
(I124
tp701
tp702
I2
s((I100
tp703
(I113
tp704
tp705
I1
s((I103
tp706
(I110
tp707
tp708
I2
s((I18
tp709
(I20
tp710
tp711
I2
s((I8
tp712
(I21
tp713
tp714
I1
s((I108
tp715
(I119
tp716
tp717
I1
s((I112
tp718
(I120
tp719
tp720
I1
s((I102
tp721
(I119
tp722
tp723
I2
s((I6
tp724
(I14
tp725
tp726
I2
s((I0
tp727
(I19
tp728
tp729
I2
s((I9
tp730
(I21
tp731
tp732
I1
s((I2
tp733
(I18
tp734
tp735
I2
s((I110
tp736
(I124
tp737
tp738
I1
s((I4
tp739
(I7
tp740
tp741
I2
s((I107
tp742
(I113
tp743
tp744
I1
s((I7
tp745
(I10
tp746
tp747
I1
s((I107
tp748
(I121
tp749
tp750
I2
s((I10
tp751
(I21
tp752
tp753
I1
s((I100
tp754
(I119
tp755
tp756
I2
s((I103
tp757
(I117
tp758
tp759
I2
s((I6
tp760
(I8
tp761
tp762
I2
s((I108
tp763
(I113
tp764
tp765
I1
s((I104
tp766
(I124
tp767
tp768
I2
s((I12
tp769
(I16
tp770
tp771
I1
s((I110
tp772
(I121
tp773
tp774
I1
s((I118
tp775
(I124
tp776
tp777
I1
s((I107
tp778
(I111
tp779
tp780
I2
s((I101
tp781
(I115
tp782
tp783
I2
s((I104
tp784
(I114
tp785
tp786
I2
s((I3
tp787
(I17
tp788
tp789
I2
s((I15
tp790
(I19
tp791
tp792
I2
s((I114
tp793
(I125
tp794
tp795
I1
s((I17
tp796
(I18
tp797
tp798
I0
s((I112
tp799
(I124
tp800
tp801
I2
s((I0
tp802
(I10
tp803
tp804
I2
s((I1
tp805
(I4
tp806
tp807
I2
s((I110
tp808
(I118
tp809
tp810
I2
s((I113
tp811
(I117
tp812
tp813
I2
s((I111
tp814
(I114
tp815
tp816
I1
s((I3
tp817
(I18
tp818
tp819
I2
s((I105
tp820
(I114
tp821
tp822
I2
s((I14
tp823
(I20
tp824
tp825
I1
s((I105
tp826
(I124
tp827
tp828
I2
s((I100
tp829
(I125
tp830
tp831
I2
s((I100
tp832
(I122
tp833
tp834
I2
s((I4
tp835
(I8
tp836
tp837
I2
s((I107
tp838
(I123
tp839
tp840
I2
s((I16
tp841
(I20
tp842
tp843
I2
s((I110
tp844
(I115
tp845
tp846
I2
s((I10
tp847
(I16
tp848
tp849
I1
s((I108
tp850
(I117
tp851
tp852
I2
s((I113
tp853
(I124
tp854
tp855
I2
s((I119
tp856
(I120
tp857
tp858
I1
s((I6
tp859
(I16
tp860
tp861
I1
s((I111
tp862
(I113
tp863
tp864
I1
s((I6
tp865
(I11
tp866
tp867
I2
s((I116
tp868
(I123
tp869
tp870
I1
s((I102
tp871
(I115
tp872
tp873
I2
s((I13
tp874
(I17
tp875
tp876
I1
s((I103
tp877
(I120
tp878
tp879
I1
s((I9
tp880
(I13
tp881
tp882
I2
s((I110
tp883
(I111
tp884
tp885
I1
s((I109
tp886
(I124
tp887
tp888
I1
s((I121
tp889
(I124
tp890
tp891
I1
s((I117
tp892
(I123
tp893
tp894
I1
s((I116
tp895
(I125
tp896
tp897
I1
s((I1
tp898
(I16
tp899
tp900
I2
s((I107
tp901
(I108
tp902
tp903
I2
s((I108
tp904
(I116
tp905
tp906
I2
s((I105
tp907
(I118
tp908
tp909
I2
s((I4
tp910
(I6
tp911
tp912
I2
s((I8
tp913
(I15
tp914
tp915
I1
s((I112
tp916
(I114
tp917
tp918
I2
s((I10
tp919
(I17
tp920
tp921
I2
s((I119
tp922
(I124
tp923
tp924
I2
s((I104
tp925
(I112
tp926
tp927
I2
s((I117
tp928
(I124
tp929
tp930
I1
s((I0
tp931
(I4
tp932
tp933
I2
s((I3
tp934
(I11
tp935
tp936
I2
s((I2
tp937
(I21
tp938
tp939
I2
s((I117
tp940
(I119
tp941
tp942
I1
s((I101
tp943
(I123
tp944
tp945
I2
s((I103
tp946
(I122
tp947
tp948
I2
s((I104
tp949
(I122
tp950
tp951
I2
s((I100
tp952
(I105
tp953
tp954
I2
s((I7
tp955
(I20
tp956
tp957
I2
s((I14
tp958
(I19
tp959
tp960
I1
s((I104
tp961
(I108
tp962
tp963
I2
s((I11
tp964
(I21
tp965
tp966
I1
s((I11
tp967
(I20
tp968
tp969
I1
s((I102
tp970
(I113
tp971
tp972
I1
s((I100
tp973
(I101
tp974
tp975
I2
s((I122
tp976
(I125
tp977
tp978
I1
s((I110
tp979
(I114
tp980
tp981
I1
s((I100
tp982
(I104
tp983
tp984
I2
s((I114
tp985
(I121
tp986
tp987
I1
s((I102
tp988
(I111
tp989
tp990
I2
s((I100
tp991
(I114
tp992
tp993
I2
s((I12
tp994
(I19
tp995
tp996
I1
s((I4
tp997
(I20
tp998
tp999
I2
s((I13
tp1000
(I21
tp1001
tp1002
I1
s((I1
tp1003
(I11
tp1004
tp1005
I2
s((I104
tp1006
(I109
tp1007
tp1008
I2
s((I107
tp1009
(I115
tp1010
tp1011
I2
s((I107
tp1012
(I118
tp1013
tp1014
I2
s((I104
tp1015
(I119
tp1016
tp1017
I2
s((I102
tp1018
(I108
tp1019
tp1020
I2
s((I13
tp1021
(I19
tp1022
tp1023
I1
s((I101
tp1024
(I106
tp1025
tp1026
I1
s((I4
tp1027
(I19
tp1028
tp1029
I2
s((I112
tp1030
(I117
tp1031
tp1032
I2
s((I6
tp1033
(I20
tp1034
tp1035
I2
s((I111
tp1036
(I121
tp1037
tp1038
I1
s((I103
tp1039
(I104
tp1040
tp1041
I1
s((I100
tp1042
(I118
tp1043
tp1044
I2
s((I105
tp1045
(I113
tp1046
tp1047
I1
s((I115
tp1048
(I118
tp1049
tp1050
I0
s((I101
tp1051
(I113
tp1052
tp1053
I1
s((I10
tp1054
(I11
tp1055
tp1056
I2
s((I109
tp1057
(I116
tp1058
tp1059
I2
s((I120
tp1060
(I124
tp1061
tp1062
I2
s((I120
tp1063
(I125
tp1064
tp1065
I2
s((I11
tp1066
(I19
tp1067
tp1068
I1
s((I0
tp1069
(I16
tp1070
tp1071
I2
s((I1
tp1072
(I3
tp1073
tp1074
I2
s((I106
tp1075
(I116
tp1076
tp1077
I2
s((I14
tp1078
(I18
tp1079
tp1080
I1
s((I8
tp1081
(I16
tp1082
tp1083
I1
s((I5
tp1084
(I12
tp1085
tp1086
I2
s((I9
tp1087
(I20
tp1088
tp1089
I1
s((I5
tp1090
(I9
tp1091
tp1092
I2
s((I106
tp1093
(I107
tp1094
tp1095
I2
s((I100
tp1096
(I124
tp1097
tp1098
I2
s((I103
tp1099
(I108
tp1100
tp1101
I2
s((I114
tp1102
(I117
tp1103
tp1104
I2
s((I105
tp1105
(I107
tp1106
tp1107
I2
s((I105
tp1108
(I117
tp1109
tp1110
I2
s((I111
tp1111
(I117
tp1112
tp1113
I2
s((I113
tp1114
(I114
tp1115
tp1116
I2
s((I11
tp1117
(I18
tp1118
tp1119
I1
s((I0
tp1120
(I17
tp1121
tp1122
I2
s((I117
tp1123
(I121
tp1124
tp1125
I1
s((I3
tp1126
(I7
tp1127
tp1128
I2
s((I102
tp1129
(I121
tp1130
tp1131
I2
s((I113
tp1132
(I125
tp1133
tp1134
I2
s((I105
tp1135
(I108
tp1136
tp1137
I2
s((I108
tp1138
(I124
tp1139
tp1140
I1
s((I116
tp1141
(I121
tp1142
tp1143
I1
s((I100
tp1144
(I117
tp1145
tp1146
I2
s((I4
tp1147
(I18
tp1148
tp1149
I2
s((I104
tp1150
(I117
tp1151
tp1152
I2
s((I102
tp1153
(I110
tp1154
tp1155
I2
s((I11
tp1156
(I15
tp1157
tp1158
I1
s((I107
tp1159
(I110
tp1160
tp1161
I2
s((I113
tp1162
(I123
tp1163
tp1164
I2
s((I5
tp1165
(I16
tp1166
tp1167
I2
s((I109
tp1168
(I112
tp1169
tp1170
I1
s((I113
tp1171
(I122
tp1172
tp1173
I2
s((I2
tp1174
(I13
tp1175
tp1176
I2
s((I2
tp1177
(I15
tp1178
tp1179
I2
s((I8
tp1180
(I10
tp1181
tp1182
I1
s((I116
tp1183
(I124
tp1184
tp1185
I1
s((I101
tp1186
(I114
tp1187
tp1188
I2
s((I5
tp1189
(I21
tp1190
tp1191
I2
s((I103
tp1192
(I114
tp1193
tp1194
I2
s((I100
tp1195
(I110
tp1196
tp1197
I2
s((I9
tp1198
(I15
tp1199
tp1200
I1
s((I111
tp1201
(I123
tp1202
tp1203
I2
s((I1
tp1204
(I10
tp1205
tp1206
I2
s((I115
tp1207
(I123
tp1208
tp1209
I1
s((I8
tp1210
(I20
tp1211
tp1212
I0
s((I10
tp1213
(I15
tp1214
tp1215
I2
s((I2
tp1216
(I17
tp1217
tp1218
I2
s((I14
tp1219
(I17
tp1220
tp1221
I1
s((I103
tp1222
(I111
tp1223
tp1224
I2
s((I112
tp1225
(I121
tp1226
tp1227
I2
s((I6
tp1228
(I18
tp1229
tp1230
I1
s((I12
tp1231
(I18
tp1232
tp1233
I1
s((I1
tp1234
(I9
tp1235
tp1236
I2
s((I5
tp1237
(I15
tp1238
tp1239
I2
s((I4
tp1240
(I21
tp1241
tp1242
I2
s((I115
tp1243
(I125
tp1244
tp1245
I1
s((I100
tp1246
(I116
tp1247
tp1248
I2
s((I111
tp1249
(I125
tp1250
tp1251
I1
s((I109
tp1252
(I120
tp1253
tp1254
I1
s((I101
tp1255
(I104
tp1256
tp1257
I1
s((I108
tp1258
(I114
tp1259
tp1260
I1
s((I3
tp1261
(I15
tp1262
tp1263
I2
s((I12
tp1264
(I21
tp1265
tp1266
I1
s((I8
tp1267
(I14
tp1268
tp1269
I2
s((I107
tp1270
(I125
tp1271
tp1272
I2
s((I102
tp1273
(I125
tp1274
tp1275
I2
s((I111
tp1276
(I116
tp1277
tp1278
I2
s((I105
tp1279
(I123
tp1280
tp1281
I2
s((I106
tp1282
(I109
tp1283
tp1284
I2
s((I103
tp1285
(I125
tp1286
tp1287
I2
s((I100
tp1288
(I109
tp1289
tp1290
I2
s((I7
tp1291
(I11
tp1292
tp1293
I2
s((I106
tp1294
(I118
tp1295
tp1296
I2
s((I104
tp1297
(I125
tp1298
tp1299
I2
s((I5
tp1300
(I17
tp1301
tp1302
I2
s((I14
tp1303
(I21
tp1304
tp1305
I1
s((I115
tp1306
(I120
tp1307
tp1308
I1
s((I0
tp1309
(I14
tp1310
tp1311
I2
s((I101
tp1312
(I102
tp1313
tp1314
I0
s((I101
tp1315
(I122
tp1316
tp1317
I2
s((I119
tp1318
(I123
tp1319
tp1320
I2
s((I14
tp1321
(I16
tp1322
tp1323
I1
s((I106
tp1324
(I121
tp1325
tp1326
I2
s((I107
tp1327
(I120
tp1328
tp1329
I1
s((I118
tp1330
(I125
tp1331
tp1332
I1
s((I110
tp1333
(I116
tp1334
tp1335
I2
s((I100
tp1336
(I112
tp1337
tp1338
I2
s((I103
tp1339
(I121
tp1340
tp1341
I2
s((I0
tp1342
(I3
tp1343
tp1344
I2
s((I102
tp1345
(I122
tp1346
tp1347
I2
s((I10
tp1348
(I20
tp1349
tp1350
I2
s((I1
tp1351
(I15
tp1352
tp1353
I2
s((I16
tp1354
(I21
tp1355
tp1356
I0
s((I7
tp1357
(I21
tp1358
tp1359
I1
s((I2
tp1360
(I7
tp1361
tp1362
I2
s((I1
tp1363
(I13
tp1364
tp1365
I2
s((I9
tp1366
(I12
tp1367
tp1368
I2
s((I13
tp1369
(I18
tp1370
tp1371
I1
s((I108
tp1372
(I112
tp1373
tp1374
I1
s((I4
tp1375
(I17
tp1376
tp1377
I2
s((I105
tp1378
(I121
tp1379
tp1380
I2
s((I103
tp1381
(I118
tp1382
tp1383
I2
s((I122
tp1384
(I123
tp1385
tp1386
I1
s((I112
tp1387
(I118
tp1388
tp1389
I2
s((I8
tp1390
(I13
tp1391
tp1392
I2
s((I101
tp1393
(I112
tp1394
tp1395
I2
s((I7
tp1396
(I12
tp1397
tp1398
I2
s((I18
tp1399
(I21
tp1400
tp1401
I1
s((I118
tp1402
(I119
tp1403
tp1404
I1
s((I120
tp1405
(I122
tp1406
tp1407
I2
s((I2
tp1408
(I9
tp1409
tp1410
I2
s((I11
tp1411
(I17
tp1412
tp1413
I1
s((I2
tp1414
(I11
tp1415
tp1416
I2
s((I1
tp1417
(I8
tp1418
tp1419
I2
s((I13
tp1420
(I15
tp1421
tp1422
I1
s((I4
tp1423
(I15
tp1424
tp1425
I2
s((I111
tp1426
(I118
tp1427
tp1428
I2
s((I10
tp1429
(I13
tp1430
tp1431
I2
s((I101
tp1432
(I125
tp1433
tp1434
I2
s((I116
tp1435
(I119
tp1436
tp1437
I1
s((I112
tp1438
(I123
tp1439
tp1440
I2
s((I108
tp1441
(I110
tp1442
tp1443
I1
s((I8
tp1444
(I17
tp1445
tp1446
I1
s((I0
tp1447
(I6
tp1448
tp1449
I2
s((I5
tp1450
(I14
tp1451
tp1452
I2
s((I109
tp1453
(I121
tp1454
tp1455
I1
s((I12
tp1456
(I15
tp1457
tp1458
I1
s((I103
tp1459
(I123
tp1460
tp1461
I2
s((I113
tp1462
(I116
tp1463
tp1464
I2
s((I5
tp1465
(I11
tp1466
tp1467
I2
s((I103
tp1468
(I105
tp1469
tp1470
I1
s((I6
tp1471
(I17
tp1472
tp1473
I2
s((I114
tp1474
(I118
tp1475
tp1476
I2
s((I100
tp1477
(I102
tp1478
tp1479
I2
s((I6
tp1480
(I21
tp1481
tp1482
I1
s((I106
tp1483
(I122
tp1484
tp1485
I2
s((I120
tp1486
(I121
tp1487
tp1488
I2
s((I108
tp1489
(I122
tp1490
tp1491
I1
s((I121
tp1492
(I123
tp1493
tp1494
I2
s((I101
tp1495
(I121
tp1496
tp1497
I2
s((I8
tp1498
(I9
tp1499
tp1500
I0
s((I10
tp1501
(I14
tp1502
tp1503
I2
s((I105
tp1504
(I122
tp1505
tp1506
I2
s((I114
tp1507
(I122
tp1508
tp1509
I0
s((I6
tp1510
(I10
tp1511
tp1512
I1
s((I9
tp1513
(I14
tp1514
tp1515
I2
s((I116
tp1516
(I122
tp1517
tp1518
I1
s((I5
tp1519
(I18
tp1520
tp1521
I2
s((I7
tp1522
(I13
tp1523
tp1524
I2
s((I0
tp1525
(I20
tp1526
tp1527
I2
s((I104
tp1528
(I107
tp1529
tp1530
I2
s((I4
tp1531
(I5
tp1532
tp1533
I0
s((I102
tp1534
(I104
tp1535
tp1536
I1
s((I101
tp1537
(I119
tp1538
tp1539
I2
s((I106
tp1540
(I123
tp1541
tp1542
I2
s((I15
tp1543
(I17
tp1544
tp1545
I1
s((I103
tp1546
(I112
tp1547
tp1548
I2
s((I100
tp1549
(I108
tp1550
tp1551
I2
s((I12
tp1552
(I14
tp1553
tp1554
I0
s((I119
tp1555
(I125
tp1556
tp1557
I2
s((I102
tp1558
(I123
tp1559
tp1560
I2
s((I102
tp1561
(I109
tp1562
tp1563
I2
s((I4
tp1564
(I11
tp1565
tp1566
I2
s((I107
tp1567
(I117
tp1568
tp1569
I2
s((I111
tp1570
(I112
tp1571
tp1572
I1
s((I104
tp1573
(I111
tp1574
tp1575
I2
s((I4
tp1576
(I14
tp1577
tp1578
I2
s((I106
tp1579
(I108
tp1580
tp1581
I2
s((I112
tp1582
(I122
tp1583
tp1584
I2
s((I117
tp1585
(I120
tp1586
tp1587
I1
s((I3
tp1588
(I6
tp1589
tp1590
I2
s((I109
tp1591
(I113
tp1592
tp1593
I1
s((I2
tp1594
(I12
tp1595
tp1596
I2
s((I116
tp1597
(I120
tp1598
tp1599
I1
s((I3
tp1600
(I16
tp1601
tp1602
I2
s((I103
tp1603
(I116
tp1604
tp1605
I2
s((I6
tp1606
(I13
tp1607
tp1608
I2
s((I101
tp1609
(I109
tp1610
tp1611
I2
s((I108
tp1612
(I120
tp1613
tp1614
I1
s((I2
tp1615
(I16
tp1616
tp1617
I2
s((I2
tp1618
(I3
tp1619
tp1620
I2
s((I7
tp1621
(I14
tp1622
tp1623
I2
s((I11
tp1624
(I12
tp1625
tp1626
I0
s((I13
tp1627
(I20
tp1628
tp1629
I1
s((I3
tp1630
(I5
tp1631
tp1632
I2
s((I1
tp1633
(I7
tp1634
tp1635
I2
s((I104
tp1636
(I105
tp1637
tp1638
I1
s((I102
tp1639
(I106
tp1640
tp1641
I1
s((I100
tp1642
(I120
tp1643
tp1644
I2
s((I108
tp1645
(I118
tp1646
tp1647
I2
s((I0
tp1648
(I12
tp1649
tp1650
I2
s((I104
tp1651
(I115
tp1652
tp1653
I2
s((I117
tp1654
(I125
tp1655
tp1656
I1
s((I105
tp1657
(I120
tp1658
tp1659
I1
s((I102
tp1660
(I116
tp1661
tp1662
I2
s((I112
tp1663
(I125
tp1664
tp1665
I2
s.