(dp0
((I7
tp1
(I16
tp2
tp3
I1
s((I11
tp4
(I113
tp5
tp6
I1
s((I1
tp7
(I14
tp8
tp9
I2
s((I111
tp10
(I113
tp11
tp12
I1
s((I4
tp13
(I15
tp14
tp15
I2
s((I1
tp16
(I125
tp17
tp18
I2
s((I4
tp19
(I111
tp20
tp21
I2
s((I1
tp22
(I2
tp23
tp24
I2
s((I1
tp25
(I121
tp26
tp27
I2
s((I0
tp28
(I2
tp29
tp30
I2
s((I17
tp31
(I110
tp32
tp33
I2
s((I109
tp34
(I125
tp35
tp36
I1
s((I7
tp37
(I104
tp38
tp39
I1
s((I11
tp40
(I111
tp41
tp42
I1
s((I17
tp43
(I122
tp44
tp45
I0
s((I102
tp46
(I105
tp47
tp48
I1
s((I106
tp49
(I117
tp50
tp51
I2
s((I108
tp52
(I121
tp53
tp54
I1
s((I8
tp55
(I18
tp56
tp57
I1
s((I11
tp58
(I120
tp59
tp60
I1
s((I6
tp61
(I15
tp62
tp63
I1
s((I8
tp64
(I121
tp65
tp66
I1
s((I105
tp67
(I112
tp68
tp69
I2
s((I15
tp70
(I16
tp71
tp72
I2
s((I103
tp73
(I109
tp74
tp75
I2
s((I14
tp76
(I15
tp77
tp78
I1
s((I0
tp79
(I102
tp80
tp81
I2
s((I14
tp82
(I113
tp83
tp84
I1
s((I116
tp85
(I123
tp86
tp87
I1
s((I3
tp88
(I116
tp89
tp90
I2
s((I16
tp91
(I18
tp92
tp93
I2
s((I12
tp94
(I111
tp95
tp96
I1
s((I5
tp97
(I115
tp98
tp99
I2
s((I10
tp100
(I12
tp101
tp102
I2
s((I3
tp103
(I14
tp104
tp105
I2
s((I113
tp106
(I115
tp107
tp108
I2
s((I0
tp109
(I13
tp110
tp111
I2
s((I2
tp112
(I13
tp113
tp114
I2
s((I17
tp115
(I114
tp116
tp117
I1
s((I116
tp118
(I118
tp119
tp120
I0
s((I6
tp121
(I109
tp122
tp123
I2
s((I20
tp124
(I101
tp125
tp126
I1
s((I10
tp127
(I125
tp128
tp129
I2
s((I101
tp130
(I110
tp131
tp132
I2
s((I21
tp133
(I113
tp134
tp135
I1
s((I11
tp136
(I112
tp137
tp138
I1
s((I10
tp139
(I108
tp140
tp141
I2
s((I9
tp142
(I11
tp143
tp144
I2
s((I2
tp145
(I112
tp146
tp147
I2
s((I20
tp148
(I111
tp149
tp150
I1
s((I111
tp151
(I115
tp152
tp153
I2
s((I6
tp154
(I9
tp155
tp156
I2
s((I105
tp157
(I115
tp158
tp159
I2
s((I21
tp160
(I110
tp161
tp162
I2
s((I1
tp163
(I101
tp164
tp165
I2
s((I101
tp166
(I117
tp167
tp168
I2
s((I112
tp169
(I122
tp170
tp171
I2
s((I117
tp172
(I122
tp173
tp174
I1
s((I7
tp175
(I123
tp176
tp177
I1
s((I17
tp178
(I123
tp179
tp180
I1
s((I109
tp181
(I118
tp182
tp183
I2
s((I6
tp184
(I116
tp185
tp186
I2
s((I120
tp187
(I123
tp188
tp189
I2
s((I15
tp190
(I125
tp191
tp192
I2
s((I4
tp193
(I112
tp194
tp195
I2
s((I13
tp196
(I112
tp197
tp198
I1
s((I9
tp199
(I115
tp200
tp201
I2
s((I105
tp202
(I106
tp203
tp204
I1
s((I20
tp205
(I110
tp206
tp207
I2
s((I105
tp208
(I116
tp209
tp210
I2
s((I14
tp211
(I110
tp212
tp213
I1
s((I13
tp214
(I115
tp215
tp216
I0
s((I103
tp217
(I115
tp218
tp219
I2
s((I3
tp220
(I13
tp221
tp222
I2
s((I2
tp223
(I119
tp224
tp225
I2
s((I6
tp226
(I104
tp227
tp228
I1
s((I8
tp229
(I115
tp230
tp231
I2
s((I104
tp232
(I113
tp233
tp234
I1
s((I5
tp235
(I109
tp236
tp237
I2
s((I7
tp238
(I114
tp239
tp240
I1
s((I0
tp241
(I116
tp242
tp243
I2
s((I18
tp244
(I120
tp245
tp246
I1
s((I1
tp247
(I108
tp248
tp249
I2
s((I102
tp250
(I118
tp251
tp252
I2
s((I4
tp253
(I101
tp254
tp255
I1
s((I107
tp256
(I119
tp257
tp258
I0
s((I7
tp259
(I17
tp260
tp261
I1
s((I117
tp262
(I118
tp263
tp264
I0
s((I16
tp265
(I125
tp266
tp267
I2
s((I6
tp268
(I118
tp269
tp270
I2
s((I10
tp271
(I101
tp272
tp273
I1
s((I12
tp274
(I112
tp275
tp276
I1
s((I6
tp277
(I107
tp278
tp279
I1
s((I20
tp280
(I119
tp281
tp282
I1
s((I108
tp283
(I125
tp284
tp285
I1
s((I2
tp286
(I4
tp287
tp288
I2
s((I9
tp289
(I16
tp290
tp291
I1
s((I2
tp292
(I6
tp293
tp294
I2
s((I5
tp295
(I13
tp296
tp297
I2
s((I11
tp298
(I110
tp299
tp300
I1
s((I7
tp301
(I105
tp302
tp303
I1
s((I121
tp304
(I125
tp305
tp306
I2
s((I0
tp307
(I115
tp308
tp309
I2
s((I116
tp310
(I125
tp311
tp312
I1
s((I15
tp313
(I20
tp314
tp315
I2
s((I103
tp316
(I122
tp317
tp318
I2
s((I11
tp319
(I100
tp320
tp321
I1
s((I10
tp322
(I120
tp323
tp324
I1
s((I105
tp325
(I119
tp326
tp327
I2
s((I12
tp328
(I101
tp329
tp330
I1
s((I2
tp331
(I106
tp332
tp333
I1
s((I9
tp334
(I104
tp335
tp336
I1
s((I1
tp337
(I16
tp338
tp339
I2
s((I102
tp340
(I107
tp341
tp342
I2
s((I15
tp343
(I103
tp344
tp345
I1
s((I7
tp346
(I13
tp347
tp348
I2
s((I14
tp349
(I112
tp350
tp351
I1
s((I101
tp352
(I120
tp353
tp354
I1
s((I16
tp355
(I106
tp356
tp357
I1
s((I3
tp358
(I4
tp359
tp360
I2
s((I12
tp361
(I117
tp362
tp363
I0
s((I109
tp364
(I117
tp365
tp366
I2
s((I11
tp367
(I14
tp368
tp369
I0
s((I2
tp370
(I8
tp371
tp372
I2
s((I2
tp373
(I10
tp374
tp375
I2
s((I12
tp376
(I13
tp377
tp378
I0
s((I3
tp379
(I12
tp380
tp381
I2
s((I1
tp382
(I10
tp383
tp384
I2
s((I105
tp385
(I110
tp386
tp387
I2
s((I111
tp388
(I122
tp389
tp390
I0
s((I7
tp391
(I15
tp392
tp393
I1
s((I111
tp394
(I119
tp395
tp396
I1
s((I114
tp397
(I123
tp398
tp399
I2
s((I11
tp400
(I17
tp401
tp402
I1
s((I5
tp403
(I100
tp404
tp405
I1
s((I3
tp406
(I124
tp407
tp408
I2
s((I6
tp409
(I12
tp410
tp411
I2
s((I10
tp412
(I102
tp413
tp414
I1
s((I0
tp415
(I5
tp416
tp417
I2
s((I105
tp418
(I111
tp419
tp420
I2
s((I124
tp421
(I125
tp422
tp423
I2
s((I118
tp424
(I120
tp425
tp426
I1
s((I1
tp427
(I120
tp428
tp429
I1
s((I110
tp430
(I123
tp431
tp432
I1
s((I6
tp433
(I114
tp434
tp435
I1
s((I15
tp436
(I110
tp437
tp438
I2
s((I12
tp439
(I17
tp440
tp441
I1
s((I109
tp442
(I114
tp443
tp444
I1
s((I15
tp445
(I115
tp446
tp447
I2
s((I115
tp448
(I116
tp449
tp450
I0
s((I5
tp451
(I17
tp452
tp453
I2
s((I5
tp454
(I7
tp455
tp456
I2
s((I101
tp457
(I118
tp458
tp459
I2
s((I21
tp460
(I121
tp461
tp462
I2
s((I10
tp463
(I121
tp464
tp465
I1
s((I115
tp466
(I117
tp467
tp468
I0
s((I11
tp469
(I124
tp470
tp471
I1
s((I115
tp472
(I123
tp473
tp474
I1
s((I20
tp475
(I21
tp476
tp477
I1
s((I2
tp478
(I108
tp479
tp480
I2
s((I14
tp481
(I109
tp482
tp483
I1
s((I13
tp484
(I114
tp485
tp486
I1
s((I110
tp487
(I120
tp488
tp489
I1
s((I0
tp490
(I7
tp491
tp492
I2
s((I11
tp493
(I13
tp494
tp495
I0
s((I19
tp496
(I116
tp497
tp498
I2
s((I7
tp499
(I115
tp500
tp501
I2
s((I109
tp502
(I110
tp503
tp504
I1
s((I17
tp505
(I113
tp506
tp507
I1
s((I0
tp508
(I8
tp509
tp510
I2
s((I17
tp511
(I118
tp512
tp513
I2
s((I7
tp514
(I18
tp515
tp516
I1
s((I1
tp517
(I12
tp518
tp519
I2
s((I18
tp520
(I122
tp521
tp522
I2
s((I107
tp523
(I112
tp524
tp525
I2
s((I15
tp526
(I112
tp527
tp528
I1
s((I102
tp529
(I103
tp530
tp531
I2
s((I9
tp532
(I17
tp533
tp534
I1
s((I3
tp535
(I21
tp536
tp537
I2
s((I16
tp538
(I101
tp539
tp540
I1
s((I8
tp541
(I106
tp542
tp543
I1
s((I4
tp544
(I12
tp545
tp546
I2
s((I102
tp547
(I120
tp548
tp549
I1
s((I108
tp550
(I115
tp551
tp552
I2
s((I0
tp553
(I108
tp554
tp555
I2
s((I9
tp556
(I18
tp557
tp558
I1
s((I113
tp559
(I118
tp560
tp561
I2
s((I2
tp562
(I120
tp563
tp564
I1
s((I110
tp565
(I117
tp566
tp567
I2
s((I10
tp568
(I114
tp569
tp570
I2
s((I9
tp571
(I105
tp572
tp573
I1
s((I4
tp574
(I123
tp575
tp576
I2
s((I5
tp577
(I6
tp578
tp579
I2
s((I17
tp580
(I125
tp581
tp582
I0
s((I5
tp583
(I8
tp584
tp585
I2
s((I12
tp586
(I124
tp587
tp588
I1
s((I12
tp589
(I20
tp590
tp591
I1
s((I8
tp592
(I111
tp593
tp594
I1
s((I9
tp595
(I106
tp596
tp597
I1
s((I1
tp598
(I119
tp599
tp600
I2
s((I13
tp601
(I109
tp602
tp603
I1
s((I13
tp604
(I108
tp605
tp606
I1
s((I1
tp607
(I115
tp608
tp609
I2
s((I0
tp610
(I107
tp611
tp612
I2
s((I1
tp613
(I3
tp614
tp615
I2
s((I104
tp616
(I110
tp617
tp618
I2
s((I100
tp619
(I115
tp620
tp621
I2
s((I8
tp622
(I108
tp623
tp624
I0
s((I8
tp625
(I109
tp626
tp627
I0
s((I2
tp628
(I104
tp629
tp630
I2
s((I20
tp631
(I103
tp632
tp633
I1
s((I104
tp634
(I120
tp635
tp636
I1
s((I114
tp637
(I118
tp638
tp639
I2
s((I11
tp640
(I123
tp641
tp642
I1
s((I0
tp643
(I9
tp644
tp645
I2
s((I101
tp646
(I108
tp647
tp648
I2
s((I12
tp649
(I121
tp650
tp651
I1
s((I5
tp652
(I10
tp653
tp654
I2
s((I20
tp655
(I124
tp656
tp657
I1
s((I18
tp658
(I123
tp659
tp660
I1
s((I6
tp661
(I122
tp662
tp663
I1
s((I12
tp664
(I113
tp665
tp666
I1
s((I6
tp667
(I108
tp668
tp669
I2
s((I104
tp670
(I112
tp671
tp672
I2
s((I21
tp673
(I108
tp674
tp675
I2
s((I8
tp676
(I12
tp677
tp678
I2
s((I3
tp679
(I20
tp680
tp681
I2
s((I12
tp682
(I118
tp683
tp684
I0
s((I0
tp685
(I109
tp686
tp687
I2
s((I15
tp688
(I21
tp689
tp690
I1
s((I114
tp691
(I115
tp692
tp693
I2
s((I2
tp694
(I124
tp695
tp696
I2
s((I103
tp697
(I119
tp698
tp699
I2
s((I109
tp700
(I122
tp701
tp702
I1
s((I10
tp703
(I115
tp704
tp705
I2
s((I106
tp706
(I124
tp707
tp708
I2
s((I17
tp709
(I120
tp710
tp711
I1
s((I107
tp712
(I122
tp713
tp714
I2
s((I9
tp715
(I119
tp716
tp717
I1
s((I14
tp718
(I108
tp719
tp720
I1
s((I3
tp721
(I122
tp722
tp723
I2
s((I16
tp724
(I111
tp725
tp726
I2
s((I118
tp727
(I122
tp728
tp729
I1
s((I7
tp730
(I111
tp731
tp732
I1
s((I6
tp733
(I101
tp734
tp735
I1
s((I3
tp736
(I121
tp737
tp738
I2
s((I19
tp739
(I20
tp740
tp741
I2
s((I115
tp742
(I121
tp743
tp744
I1
s((I10
tp745
(I124
tp746
tp747
I2
s((I113
tp748
(I120
tp749
tp750
I1
s((I100
tp751
(I121
tp752
tp753
I2
s((I108
tp754
(I122
tp755
tp756
I1
s((I11
tp757
(I122
tp758
tp759
I1
s((I11
tp760
(I121
tp761
tp762
I1
s((I2
tp763
(I115
tp764
tp765
I2
s((I114
tp766
(I124
tp767
tp768
I2
s((I105
tp769
(I109
tp770
tp771
I2
s((I115
tp772
(I122
tp773
tp774
I1
s((I16
tp775
(I17
tp776
tp777
I2
s((I8
tp778
(I102
tp779
tp780
I1
s((I17
tp781
(I102
tp782
tp783
I1
s((I7
tp784
(I107
tp785
tp786
I1
s((I118
tp787
(I121
tp788
tp789
I1
s((I9
tp790
(I19
tp791
tp792
I1
s((I101
tp793
(I121
tp794
tp795
I2
s((I15
tp796
(I109
tp797
tp798
I2
s((I15
tp799
(I114
tp800
tp801
I0
s((I13
tp802
(I14
tp803
tp804
I0
s((I14
tp805
(I125
tp806
tp807
I1
s((I100
tp808
(I111
tp809
tp810
I2
s((I18
tp811
(I114
tp812
tp813
I1
s((I1
tp814
(I102
tp815
tp816
I2
s((I4
tp817
(I122
tp818
tp819
I2
s((I13
tp820
(I17
tp821
tp822
I1
s((I18
tp823
(I101
tp824
tp825
I1
s((I107
tp826
(I124
tp827
tp828
I2
s((I17
tp829
(I101
tp830
tp831
I1
s((I114
tp832
(I122
tp833
tp834
I2
s((I122
tp835
(I124
tp836
tp837
I1
s((I9
tp838
(I107
tp839
tp840
I1
s((I6
tp841
(I16
tp842
tp843
I1
s((I12
tp844
(I123
tp845
tp846
I1
s((I1
tp847
(I19
tp848
tp849
I2
s((I106
tp850
(I111
tp851
tp852
I2
s((I0
tp853
(I11
tp854
tp855
I2
s((I110
tp856
(I113
tp857
tp858
I1
s((I119
tp859
(I121
tp860
tp861
I2
s((I0
tp862
(I18
tp863
tp864
I2
s((I15
tp865
(I118
tp866
tp867
I2
s((I15
tp868
(I116
tp869
tp870
I2
s((I2
tp871
(I20
tp872
tp873
I2
s((I15
tp874
(I121
tp875
tp876
I2
s((I115
tp877
(I124
tp878
tp879
I1
s((I10
tp880
(I100
tp881
tp882
I1
s((I7
tp883
(I124
tp884
tp885
I1
s((I104
tp886
(I118
tp887
tp888
I2
s((I109
tp889
(I111
tp890
tp891
I1
s((I119
tp892
(I122
tp893
tp894
I2
s((I8
tp895
(I11
tp896
tp897
I2
s((I0
tp898
(I112
tp899
tp900
I2
s((I0
tp901
(I1
tp902
tp903
I2
s((I101
tp904
(I116
tp905
tp906
I2
s((I7
tp907
(I8
tp908
tp909
I2
s((I18
tp910
(I115
tp911
tp912
I2
s((I18
tp913
(I125
tp914
tp915
I2
s((I123
tp916
(I125
tp917
tp918
I2
s((I123
tp919
(I124
tp920
tp921
I2
s((I12
tp922
(I125
tp923
tp924
I1
s((I112
tp925
(I116
tp926
tp927
I2
s((I21
tp928
(I116
tp929
tp930
I2
s((I101
tp931
(I103
tp932
tp933
I2
s((I6
tp934
(I18
tp935
tp936
I1
s((I0
tp937
(I101
tp938
tp939
I2
s((I105
tp940
(I125
tp941
tp942
I2
s((I112
tp943
(I113
tp944
tp945
I1
s((I5
tp946
(I116
tp947
tp948
I2
s((I103
tp949
(I113
tp950
tp951
I1
s((I5
tp952
(I121
tp953
tp954
I2
s((I17
tp955
(I20
tp956
tp957
I0
s((I8
tp958
(I112
tp959
tp960
I1
s((I0
tp961
(I118
tp962
tp963
I2
s((I108
tp964
(I123
tp965
tp966
I1
s((I10
tp967
(I119
tp968
tp969
I1
s((I106
tp970
(I112
tp971
tp972
I2
s((I107
tp973
(I114
tp974
tp975
I2
s((I19
tp976
(I104
tp977
tp978
I1
s((I14
tp979
(I121
tp980
tp981
I1
s((I14
tp982
(I116
tp983
tp984
I0
s((I4
tp985
(I125
tp986
tp987
I2
s((I16
tp988
(I103
tp989
tp990
I1
s((I7
tp991
(I103
tp992
tp993
I1
s((I109
tp994
(I123
tp995
tp996
I1
s((I11
tp997
(I21
tp998
tp999
I1
s((I20
tp1000
(I107
tp1001
tp1002
I1
s((I8
tp1003
(I101
tp1004
tp1005
I1
s((I4
tp1006
(I13
tp1007
tp1008
I2
s((I102
tp1009
(I112
tp1010
tp1011
I2
s((I11
tp1012
(I108
tp1013
tp1014
I1
s((I10
tp1015
(I112
tp1016
tp1017
I1
s((I0
tp1018
(I113
tp1019
tp1020
I2
s((I114
tp1021
(I116
tp1022
tp1023
I2
s((I8
tp1024
(I119
tp1025
tp1026
I1
s((I6
tp1027
(I19
tp1028
tp1029
I1
s((I1
tp1030
(I6
tp1031
tp1032
I2
s((I19
tp1033
(I21
tp1034
tp1035
I1
s((I19
tp1036
(I100
tp1037
tp1038
I1
s((I1
tp1039
(I117
tp1040
tp1041
I2
s((I3
tp1042
(I10
tp1043
tp1044
I2
s((I13
tp1045
(I123
tp1046
tp1047
I1
s((I5
tp1048
(I119
tp1049
tp1050
I2
s((I115
tp1051
(I119
tp1052
tp1053
I1
s((I1
tp1054
(I20
tp1055
tp1056
I2
s((I20
tp1057
(I116
tp1058
tp1059
I2
s((I17
tp1060
(I107
tp1061
tp1062
I1
s((I118
tp1063
(I123
tp1064
tp1065
I1
s((I100
tp1066
(I103
tp1067
tp1068
I2
s((I18
tp1069
(I106
tp1070
tp1071
I1
s((I110
tp1072
(I112
tp1073
tp1074
I1
s((I12
tp1075
(I103
tp1076
tp1077
I1
s((I107
tp1078
(I116
tp1079
tp1080
I2
s((I7
tp1081
(I19
tp1082
tp1083
I1
s((I102
tp1084
(I117
tp1085
tp1086
I2
s((I12
tp1087
(I105
tp1088
tp1089
I1
s((I0
tp1090
(I119
tp1091
tp1092
I2
s((I13
tp1093
(I121
tp1094
tp1095
I1
s((I5
tp1096
(I112
tp1097
tp1098
I2
s((I10
tp1099
(I18
tp1100
tp1101
I2
s((I2
tp1102
(I116
tp1103
tp1104
I2
s((I2
tp1105
(I118
tp1106
tp1107
I2
s((I5
tp1108
(I102
tp1109
tp1110
I0
s((I116
tp1111
(I122
tp1112
tp1113
I1
s((I5
tp1114
(I107
tp1115
tp1116
I2
s((I20
tp1117
(I125
tp1118
tp1119
I0
s((I5
tp1120
(I125
tp1121
tp1122
I2
s((I105
tp1123
(I108
tp1124
tp1125
I2
s((I9
tp1126
(I10
tp1127
tp1128
I1
s((I1
tp1129
(I124
tp1130
tp1131
I2
s((I7
tp1132
(I108
tp1133
tp1134
I2
s((I104
tp1135
(I121
tp1136
tp1137
I2
s((I5
tp1138
(I111
tp1139
tp1140
I2
s((I4
tp1141
(I107
tp1142
tp1143
I2
s((I104
tp1144
(I116
tp1145
tp1146
I2
s((I110
tp1147
(I125
tp1148
tp1149
I1
s((I12
tp1150
(I108
tp1151
tp1152
I1
s((I14
tp1153
(I111
tp1154
tp1155
I1
s((I7
tp1156
(I9
tp1157
tp1158
I2
s((I5
tp1159
(I15
tp1160
tp1161
I2
s((I10
tp1162
(I113
tp1163
tp1164
I1
s((I5
tp1165
(I19
tp1166
tp1167
I2
s((I108
tp1168
(I109
tp1169
tp1170
I0
s((I110
tp1171
(I114
tp1172
tp1173
I1
s((I2
tp1174
(I5
tp1175
tp1176
I2
s((I106
tp1177
(I120
tp1178
tp1179
I1
s((I19
tp1180
(I114
tp1181
tp1182
I1
s((I101
tp1183
(I107
tp1184
tp1185
I2
s((I18
tp1186
(I19
tp1187
tp1188
I1
s((I113
tp1189
(I121
tp1190
tp1191
I2
s((I112
tp1192
(I119
tp1193
tp1194
I1
s((I114
tp1195
(I121
tp1196
tp1197
I0
s((I104
tp1198
(I106
tp1199
tp1200
I1
s((I3
tp1201
(I9
tp1202
tp1203
I2
s((I103
tp1204
(I124
tp1205
tp1206
I2
s((I100
tp1207
(I107
tp1208
tp1209
I2
s((I15
tp1210
(I119
tp1211
tp1212
I1
s((I11
tp1213
(I107
tp1214
tp1215
I1
s((I9
tp1216
(I124
tp1217
tp1218
I1
s((I101
tp1219
(I124
tp1220
tp1221
I2
s((I1
tp1222
(I18
tp1223
tp1224
I2
s((I18
tp1225
(I107
tp1226
tp1227
I1
s((I3
tp1228
(I109
tp1229
tp1230
I2
s((I18
tp1231
(I117
tp1232
tp1233
I2
s((I3
tp1234
(I19
tp1235
tp1236
I2
s((I17
tp1237
(I116
tp1238
tp1239
I2
s((I15
tp1240
(I117
tp1241
tp1242
I2
s((I14
tp1243
(I120
tp1244
tp1245
I1
s((I15
tp1246
(I122
tp1247
tp1248
I2
s((I101
tp1249
(I111
tp1250
tp1251
I2
s((I6
tp1252
(I100
tp1253
tp1254
I1
s((I16
tp1255
(I19
tp1256
tp1257
I2
s((I10
tp1258
(I19
tp1259
tp1260
I2
s((I19
tp1261
(I110
tp1262
tp1263
I2
s((I20
tp1264
(I117
tp1265
tp1266
I2
s((I0
tp1267
(I117
tp1268
tp1269
I2
s((I111
tp1270
(I124
tp1271
tp1272
I0
s((I20
tp1273
(I106
tp1274
tp1275
I1
s((I8
tp1276
(I107
tp1277
tp1278
I1
s((I15
tp1279
(I124
tp1280
tp1281
I2
s((I19
tp1282
(I109
tp1283
tp1284
I2
s((I112
tp1285
(I115
tp1286
tp1287
I2
s((I1
tp1288
(I100
tp1289
tp1290
I0
s((I102
tp1291
(I114
tp1292
tp1293
I2
s((I111
tp1294
(I120
tp1295
tp1296
I1
s((I19
tp1297
(I121
tp1298
tp1299
I1
s((I110
tp1300
(I119
tp1301
tp1302
I1
s((I101
tp1303
(I104
tp1304
tp1305
I2
s((I7
tp1306
(I120
tp1307
tp1308
I1
s((I3
tp1309
(I111
tp1310
tp1311
I2
s((I8
tp1312
(I19
tp1313
tp1314
I1
s((I109
tp1315
(I115
tp1316
tp1317
I2
s((I6
tp1318
(I119
tp1319
tp1320
I1
s((I2
tp1321
(I14
tp1322
tp1323
I2
s((I1
tp1324
(I21
tp1325
tp1326
I2
s((I11
tp1327
(I16
tp1328
tp1329
I1
s((I3
tp1330
(I8
tp1331
tp1332
I2
s((I1
tp1333
(I17
tp1334
tp1335
I2
s((I4
tp1336
(I9
tp1337
tp1338
I2
s((I102
tp1339
(I124
tp1340
tp1341
I2
s((I11
tp1342
(I106
tp1343
tp1344
I1
s((I17
tp1345
(I111
tp1346
tp1347
I2
s((I21
tp1348
(I117
tp1349
tp1350
I2
s((I1
tp1351
(I103
tp1352
tp1353
I2
s((I100
tp1354
(I113
tp1355
tp1356
I1
s((I104
tp1357
(I123
tp1358
tp1359
I2
s((I103
tp1360
(I110
tp1361
tp1362
I2
s((I4
tp1363
(I5
tp1364
tp1365
I1
s((I18
tp1366
(I20
tp1367
tp1368
I2
s((I8
tp1369
(I21
tp1370
tp1371
I1
s((I0
tp1372
(I122
tp1373
tp1374
I2
s((I3
tp1375
(I18
tp1376
tp1377
I2
s((I112
tp1378
(I120
tp1379
tp1380
I1
s((I102
tp1381
(I119
tp1382
tp1383
I2
s((I1
tp1384
(I15
tp1385
tp1386
I2
s((I16
tp1387
(I110
tp1388
tp1389
I2
s((I0
tp1390
(I19
tp1391
tp1392
I2
s((I20
tp1393
(I109
tp1394
tp1395
I2
s((I101
tp1396
(I119
tp1397
tp1398
I2
s((I9
tp1399
(I21
tp1400
tp1401
I1
s((I2
tp1402
(I18
tp1403
tp1404
I2
s((I2
tp1405
(I102
tp1406
tp1407
I2
s((I18
tp1408
(I108
tp1409
tp1410
I2
s((I19
tp1411
(I101
tp1412
tp1413
I1
s((I110
tp1414
(I124
tp1415
tp1416
I1
s((I4
tp1417
(I7
tp1418
tp1419
I2
s((I107
tp1420
(I113
tp1421
tp1422
I1
s((I11
tp1423
(I103
tp1424
tp1425
I1
s((I7
tp1426
(I10
tp1427
tp1428
I1
s((I5
tp1429
(I118
tp1430
tp1431
I2
s((I20
tp1432
(I113
tp1433
tp1434
I1
s((I10
tp1435
(I21
tp1436
tp1437
I1
s((I8
tp1438
(I122
tp1439
tp1440
I1
s((I100
tp1441
(I119
tp1442
tp1443
I2
s((I103
tp1444
(I117
tp1445
tp1446
I2
s((I6
tp1447
(I8
tp1448
tp1449
I2
s((I2
tp1450
(I101
tp1451
tp1452
I1
s((I0
tp1453
(I124
tp1454
tp1455
I2
s((I3
tp1456
(I119
tp1457
tp1458
I2
s((I0
tp1459
(I120
tp1460
tp1461
I2
s((I19
tp1462
(I112
tp1463
tp1464
I1
s((I1
tp1465
(I112
tp1466
tp1467
I2
s((I0
tp1468
(I111
tp1469
tp1470
I2
s((I9
tp1471
(I125
tp1472
tp1473
I1
s((I15
tp1474
(I102
tp1475
tp1476
I1
s((I15
tp1477
(I100
tp1478
tp1479
I1
s((I15
tp1480
(I107
tp1481
tp1482
I1
s((I110
tp1483
(I121
tp1484
tp1485
I1
s((I15
tp1486
(I105
tp1487
tp1488
I1
s((I17
tp1489
(I106
tp1490
tp1491
I1
s((I118
tp1492
(I124
tp1493
tp1494
I1
s((I3
tp1495
(I110
tp1496
tp1497
I2
s((I103
tp1498
(I112
tp1499
tp1500
I2
s((I107
tp1501
(I111
tp1502
tp1503
I2
s((I10
tp1504
(I117
tp1505
tp1506
I2
s((I107
tp1507
(I109
tp1508
tp1509
I2
s((I101
tp1510
(I115
tp1511
tp1512
I2
s((I3
tp1513
(I125
tp1514
tp1515
I2
s((I104
tp1516
(I114
tp1517
tp1518
I2
s((I0
tp1519
(I123
tp1520
tp1521
I2
s((I3
tp1522
(I17
tp1523
tp1524
I2
s((I15
tp1525
(I19
tp1526
tp1527
I2
s((I114
tp1528
(I125
tp1529
tp1530
I2
s((I8
tp1531
(I124
tp1532
tp1533
I1
s((I8
tp1534
(I125
tp1535
tp1536
I1
s((I9
tp1537
(I116
tp1538
tp1539
I2
s((I107
tp1540
(I125
tp1541
tp1542
I2
s((I112
tp1543
(I124
tp1544
tp1545
I2
s((I19
tp1546
(I108
tp1547
tp1548
I2
s((I18
tp1549
(I109
tp1550
tp1551
I2
s((I2
tp1552
(I122
tp1553
tp1554
I2
s((I12
tp1555
(I109
tp1556
tp1557
I1
s((I6
tp1558
(I106
tp1559
tp1560
I1
s((I0
tp1561
(I10
tp1562
tp1563
I2
s((I1
tp1564
(I4
tp1565
tp1566
I2
s((I110
tp1567
(I118
tp1568
tp1569
I2
s((I7
tp1570
(I116
tp1571
tp1572
I2
s((I17
tp1573
(I121
tp1574
tp1575
I1
s((I3
tp1576
(I5
tp1577
tp1578
I1
s((I113
tp1579
(I117
tp1580
tp1581
I2
s((I111
tp1582
(I114
tp1583
tp1584
I1
s((I108
tp1585
(I119
tp1586
tp1587
I1
s((I0
tp1588
(I125
tp1589
tp1590
I2
s((I14
tp1591
(I20
tp1592
tp1593
I1
s((I112
tp1594
(I123
tp1595
tp1596
I2
s((I100
tp1597
(I125
tp1598
tp1599
I2
s((I100
tp1600
(I122
tp1601
tp1602
I2
s((I4
tp1603
(I8
tp1604
tp1605
I2
s((I14
tp1606
(I105
tp1607
tp1608
I1
s((I21
tp1609
(I112
tp1610
tp1611
I2
s((I14
tp1612
(I100
tp1613
tp1614
I1
s((I4
tp1615
(I109
tp1616
tp1617
I2
s((I10
tp1618
(I118
tp1619
tp1620
I2
s((I110
tp1621
(I115
tp1622
tp1623
I2
s((I10
tp1624
(I16
tp1625
tp1626
I1
s((I2
tp1627
(I125
tp1628
tp1629
I2
s((I1
tp1630
(I111
tp1631
tp1632
I2
s((I3
tp1633
(I16
tp1634
tp1635
I2
s((I13
tp1636
(I116
tp1637
tp1638
I0
s((I104
tp1639
(I119
tp1640
tp1641
I2
s((I19
tp1642
(I122
tp1643
tp1644
I2
s((I108
tp1645
(I118
tp1646
tp1647
I2
s((I19
tp1648
(I120
tp1649
tp1650
I1
s((I11
tp1651
(I118
tp1652
tp1653
I0
s((I119
tp1654
(I120
tp1655
tp1656
I1
s((I21
tp1657
(I105
tp1658
tp1659
I1
s((I2
tp1660
(I114
tp1661
tp1662
I2
s((I8
tp1663
(I120
tp1664
tp1665
I1
s((I11
tp1666
(I109
tp1667
tp1668
I1
s((I6
tp1669
(I11
tp1670
tp1671
I2
s((I106
tp1672
(I118
tp1673
tp1674
I2
s((I0
tp1675
(I15
tp1676
tp1677
I2
s((I102
tp1678
(I115
tp1679
tp1680
I2
s((I101
tp1681
(I105
tp1682
tp1683
I1
s((I103
tp1684
(I120
tp1685
tp1686
I1
s((I104
tp1687
(I125
tp1688
tp1689
I2
s((I4
tp1690
(I117
tp1691
tp1692
I2
s((I9
tp1693
(I13
tp1694
tp1695
I2
s((I17
tp1696
(I124
tp1697
tp1698
I0
s((I9
tp1699
(I111
tp1700
tp1701
I1
s((I18
tp1702
(I100
tp1703
tp1704
I1
s((I109
tp1705
(I124
tp1706
tp1707
I1
s((I14
tp1708
(I123
tp1709
tp1710
I1
s((I4
tp1711
(I118
tp1712
tp1713
I2
s((I121
tp1714
(I124
tp1715
tp1716
I2
s((I117
tp1717
(I123
tp1718
tp1719
I1
s((I1
tp1720
(I118
tp1721
tp1722
I2
s((I19
tp1723
(I118
tp1724
tp1725
I2
s((I7
tp1726
(I112
tp1727
tp1728
I1
s((I107
tp1729
(I108
tp1730
tp1731
I2
s((I13
tp1732
(I105
tp1733
tp1734
I1
s((I108
tp1735
(I116
tp1736
tp1737
I2
s((I105
tp1738
(I118
tp1739
tp1740
I2
s((I10
tp1741
(I111
tp1742
tp1743
I2
s((I9
tp1744
(I101
tp1745
tp1746
I1
s((I8
tp1747
(I113
tp1748
tp1749
I1
s((I8
tp1750
(I15
tp1751
tp1752
I1
s((I2
tp1753
(I111
tp1754
tp1755
I2
s((I112
tp1756
(I114
tp1757
tp1758
I2
s((I10
tp1759
(I17
tp1760
tp1761
I2
s((I119
tp1762
(I124
tp1763
tp1764
I2
s((I106
tp1765
(I113
tp1766
tp1767
I0
s((I4
tp1768
(I106
tp1769
tp1770
I1
s((I21
tp1771
(I123
tp1772
tp1773
I2
s((I117
tp1774
(I124
tp1775
tp1776
I1
s((I0
tp1777
(I4
tp1778
tp1779
I2
s((I3
tp1780
(I11
tp1781
tp1782
I2
s((I12
tp1783
(I116
tp1784
tp1785
I0
s((I2
tp1786
(I21
tp1787
tp1788
I2
s((I117
tp1789
(I119
tp1790
tp1791
I1
s((I4
tp1792
(I121
tp1793
tp1794
I2
s((I21
tp1795
(I104
tp1796
tp1797
I1
s((I101
tp1798
(I123
tp1799
tp1800
I2
s((I100
tp1801
(I123
tp1802
tp1803
I2
s((I18
tp1804
(I111
tp1805
tp1806
I0
s((I104
tp1807
(I122
tp1808
tp1809
I2
s((I7
tp1810
(I117
tp1811
tp1812
I2
s((I21
tp1813
(I103
tp1814
tp1815
I1
s((I21
tp1816
(I120
tp1817
tp1818
I1
s((I114
tp1819
(I119
tp1820
tp1821
I1
s((I7
tp1822
(I20
tp1823
tp1824
I1
s((I6
tp1825
(I121
tp1826
tp1827
I1
s((I14
tp1828
(I19
tp1829
tp1830
I1
s((I13
tp1831
(I122
tp1832
tp1833
I1
s((I104
tp1834
(I108
tp1835
tp1836
I2
s((I19
tp1837
(I125
tp1838
tp1839
I0
s((I11
tp1840
(I20
tp1841
tp1842
I1
s((I17
tp1843
(I100
tp1844
tp1845
I1
s((I15
tp1846
(I101
tp1847
tp1848
I1
s((I14
tp1849
(I104
tp1850
tp1851
I1
s((I12
tp1852
(I107
tp1853
tp1854
I1
s((I109
tp1855
(I119
tp1856
tp1857
I1
s((I15
tp1858
(I104
tp1859
tp1860
I1
s((I6
tp1861
(I7
tp1862
tp1863
I2
s((I100
tp1864
(I101
tp1865
tp1866
I2
s((I122
tp1867
(I125
tp1868
tp1869
I0
s((I108
tp1870
(I111
tp1871
tp1872
I1
s((I105
tp1873
(I113
tp1874
tp1875
I1
s((I16
tp1876
(I116
tp1877
tp1878
I2
s((I106
tp1879
(I119
tp1880
tp1881
I2
s((I13
tp1882
(I120
tp1883
tp1884
I1
s((I5
tp1885
(I114
tp1886
tp1887
I2
s((I100
tp1888
(I114
tp1889
tp1890
I2
s((I12
tp1891
(I19
tp1892
tp1893
I1
s((I12
tp1894
(I122
tp1895
tp1896
I1
s((I4
tp1897
(I20
tp1898
tp1899
I2
s((I21
tp1900
(I122
tp1901
tp1902
I2
s((I13
tp1903
(I21
tp1904
tp1905
I1
s((I1
tp1906
(I11
tp1907
tp1908
I2
s((I104
tp1909
(I109
tp1910
tp1911
I2
s((I107
tp1912
(I115
tp1913
tp1914
I2
s((I19
tp1915
(I105
tp1916
tp1917
I1
s((I5
tp1918
(I101
tp1919
tp1920
I1
s((I107
tp1921
(I118
tp1922
tp1923
I2
s((I4
tp1924
(I105
tp1925
tp1926
I1
s((I103
tp1927
(I111
tp1928
tp1929
I2
s((I10
tp1930
(I106
tp1931
tp1932
I1
s((I15
tp1933
(I108
tp1934
tp1935
I2
s((I15
tp1936
(I113
tp1937
tp1938
I1
s((I17
tp1939
(I117
tp1940
tp1941
I2
s((I6
tp1942
(I21
tp1943
tp1944
I1
s((I6
tp1945
(I111
tp1946
tp1947
I0
s((I20
tp1948
(I123
tp1949
tp1950
I1
s((I102
tp1951
(I108
tp1952
tp1953
I2
s((I13
tp1954
(I19
tp1955
tp1956
I1
s((I110
tp1957
(I111
tp1958
tp1959
I1
s((I13
tp1960
(I117
tp1961
tp1962
I0
s((I4
tp1963
(I19
tp1964
tp1965
I2
s((I14
tp1966
(I122
tp1967
tp1968
I1
s((I112
tp1969
(I117
tp1970
tp1971
I2
s((I6
tp1972
(I20
tp1973
tp1974
I2
s((I5
tp1975
(I105
tp1976
tp1977
I1
s((I111
tp1978
(I121
tp1979
tp1980
I1
s((I103
tp1981
(I104
tp1982
tp1983
I1
s((I100
tp1984
(I118
tp1985
tp1986
I2
s((I11
tp1987
(I105
tp1988
tp1989
I1
s((I19
tp1990
(I103
tp1991
tp1992
I1
s((I115
tp1993
(I118
tp1994
tp1995
I0
s((I101
tp1996
(I113
tp1997
tp1998
I1
s((I4
tp1999
(I103
tp2000
tp2001
I0
s((I13
tp2002
(I107
tp2003
tp2004
I1
s((I12
tp2005
(I110
tp2006
tp2007
I1
s((I106
tp2008
(I108
tp2009
tp2010
I2
s((I9
tp2011
(I103
tp2012
tp2013
I1
s((I10
tp2014
(I11
tp2015
tp2016
I2
s((I109
tp2017
(I116
tp2018
tp2019
I2
s((I120
tp2020
(I124
tp2021
tp2022
I2
s((I120
tp2023
(I125
tp2024
tp2025
I2
s((I11
tp2026
(I19
tp2027
tp2028
I1
s((I0
tp2029
(I16
tp2030
tp2031
I2
s((I7
tp2032
(I101
tp2033
tp2034
I1
s((I8
tp2035
(I103
tp2036
tp2037
I1
s((I15
tp2038
(I18
tp2039
tp2040
I2
s((I13
tp2041
(I111
tp2042
tp2043
I1
s((I17
tp2044
(I103
tp2045
tp2046
I1
s((I5
tp2047
(I108
tp2048
tp2049
I2
s((I9
tp2050
(I120
tp2051
tp2052
I1
s((I3
tp2053
(I107
tp2054
tp2055
I2
s((I8
tp2056
(I104
tp2057
tp2058
I1
s((I2
tp2059
(I117
tp2060
tp2061
I2
s((I20
tp2062
(I105
tp2063
tp2064
I1
s((I7
tp2065
(I118
tp2066
tp2067
I2
s((I5
tp2068
(I123
tp2069
tp2070
I2
s((I10
tp2071
(I107
tp2072
tp2073
I1
s((I106
tp2074
(I116
tp2075
tp2076
I2
s((I102
tp2077
(I104
tp2078
tp2079
I2
s((I6
tp2080
(I14
tp2081
tp2082
I2
s((I4
tp2083
(I110
tp2084
tp2085
I2
s((I14
tp2086
(I18
tp2087
tp2088
I1
s((I9
tp2089
(I117
tp2090
tp2091
I2
s((I8
tp2092
(I16
tp2093
tp2094
I1
s((I12
tp2095
(I114
tp2096
tp2097
I1
s((I6
tp2098
(I105
tp2099
tp2100
I1
s((I16
tp2101
(I118
tp2102
tp2103
I2
s((I15
tp2104
(I120
tp2105
tp2106
I1
s((I9
tp2107
(I20
tp2108
tp2109
I1
s((I9
tp2110
(I118
tp2111
tp2112
I2
s((I104
tp2113
(I124
tp2114
tp2115
I2
s((I106
tp2116
(I121
tp2117
tp2118
I2
s((I18
tp2119
(I103
tp2120
tp2121
I1
s((I19
tp2122
(I115
tp2123
tp2124
I2
s((I7
tp2125
(I109
tp2126
tp2127
I2
s((I11
tp2128
(I104
tp2129
tp2130
I1
s((I10
tp2131
(I116
tp2132
tp2133
I2
s((I102
tp2134
(I113
tp2135
tp2136
I1
s((I15
tp2137
(I123
tp2138
tp2139
I2
s((I100
tp2140
(I124
tp2141
tp2142
I2
s((I103
tp2143
(I108
tp2144
tp2145
I2
s((I114
tp2146
(I117
tp2147
tp2148
I2
s((I105
tp2149
(I107
tp2150
tp2151
I2
s((I105
tp2152
(I117
tp2153
tp2154
I2
s((I9
tp2155
(I108
tp2156
tp2157
I0
s((I1
tp2158
(I106
tp2159
tp2160
I1
s((I1
tp2161
(I105
tp2162
tp2163
I0
s((I100
tp2164
(I120
tp2165
tp2166
I1
s((I113
tp2167
(I114
tp2168
tp2169
I2
s((I11
tp2170
(I18
tp2171
tp2172
I1
s((I0
tp2173
(I17
tp2174
tp2175
I2
s((I6
tp2176
(I120
tp2177
tp2178
I1
s((I21
tp2179
(I119
tp2180
tp2181
I2
s((I117
tp2182
(I121
tp2183
tp2184
I1
s((I12
tp2185
(I119
tp2186
tp2187
I1
s((I6
tp2188
(I110
tp2189
tp2190
I2
s((I5
tp2191
(I12
tp2192
tp2193
I2
s((I17
tp2194
(I105
tp2195
tp2196
I1
s((I102
tp2197
(I121
tp2198
tp2199
I2
s((I6
tp2200
(I113
tp2201
tp2202
I1
s((I1
tp2203
(I113
tp2204
tp2205
I1
s((I3
tp2206
(I106
tp2207
tp2208
I1
s((I12
tp2209
(I104
tp2210
tp2211
I1
s((I21
tp2212
(I100
tp2213
tp2214
I1
s((I20
tp2215
(I102
tp2216
tp2217
I1
s((I5
tp2218
(I104
tp2219
tp2220
I1
s((I108
tp2221
(I124
tp2222
tp2223
I1
s((I106
tp2224
(I114
tp2225
tp2226
I2
s((I17
tp2227
(I109
tp2228
tp2229
I2
s((I8
tp2230
(I123
tp2231
tp2232
I1
s((I100
tp2233
(I117
tp2234
tp2235
I2
s((I4
tp2236
(I18
tp2237
tp2238
I2
s((I17
tp2239
(I19
tp2240
tp2241
I1
s((I104
tp2242
(I117
tp2243
tp2244
I2
s((I102
tp2245
(I110
tp2246
tp2247
I2
s((I11
tp2248
(I15
tp2249
tp2250
I1
s((I107
tp2251
(I110
tp2252
tp2253
I2
s((I113
tp2254
(I123
tp2255
tp2256
I2
s((I13
tp2257
(I118
tp2258
tp2259
I0
s((I5
tp2260
(I16
tp2261
tp2262
I2
s((I109
tp2263
(I112
tp2264
tp2265
I1
s((I113
tp2266
(I122
tp2267
tp2268
I2
s((I6
tp2269
(I103
tp2270
tp2271
I1
s((I13
tp2272
(I101
tp2273
tp2274
I1
s((I13
tp2275
(I100
tp2276
tp2277
I1
s((I2
tp2278
(I15
tp2279
tp2280
I2
s((I8
tp2281
(I10
tp2282
tp2283
I1
s((I19
tp2284
(I106
tp2285
tp2286
I1
s((I116
tp2287
(I124
tp2288
tp2289
I1
s((I101
tp2290
(I114
tp2291
tp2292
I2
s((I5
tp2293
(I21
tp2294
tp2295
I2
s((I103
tp2296
(I114
tp2297
tp2298
I2
s((I4
tp2299
(I6
tp2300
tp2301
I2
s((I100
tp2302
(I110
tp2303
tp2304
I2
s((I9
tp2305
(I15
tp2306
tp2307
I1
s((I11
tp2308
(I119
tp2309
tp2310
I1
s((I8
tp2311
(I100
tp2312
tp2313
I1
s((I21
tp2314
(I118
tp2315
tp2316
I2
s((I18
tp2317
(I116
tp2318
tp2319
I2
s((I20
tp2320
(I104
tp2321
tp2322
I1
s((I7
tp2323
(I119
tp2324
tp2325
I1
s((I3
tp2326
(I105
tp2327
tp2328
I1
s((I21
tp2329
(I101
tp2330
tp2331
I1
s((I8
tp2332
(I20
tp2333
tp2334
I1
s((I10
tp2335
(I15
tp2336
tp2337
I2
s((I4
tp2338
(I102
tp2339
tp2340
I1
s((I2
tp2341
(I17
tp2342
tp2343
I2
s((I14
tp2344
(I17
tp2345
tp2346
I1
s((I16
tp2347
(I117
tp2348
tp2349
I2
s((I116
tp2350
(I117
tp2351
tp2352
I0
s((I12
tp2353
(I120
tp2354
tp2355
I1
s((I108
tp2356
(I114
tp2357
tp2358
I1
s((I3
tp2359
(I115
tp2360
tp2361
I2
s((I14
tp2362
(I118
tp2363
tp2364
I0
s((I112
tp2365
(I121
tp2366
tp2367
I2
s((I20
tp2368
(I120
tp2369
tp2370
I1
s((I0
tp2371
(I100
tp2372
tp2373
I2
s((I0
tp2374
(I114
tp2375
tp2376
I2
s((I7
tp2377
(I110
tp2378
tp2379
I2
s((I107
tp2380
(I121
tp2381
tp2382
I2
s((I101
tp2383
(I106
tp2384
tp2385
I1
s((I19
tp2386
(I113
tp2387
tp2388
I1
s((I7
tp2389
(I125
tp2390
tp2391
I1
s((I9
tp2392
(I109
tp2393
tp2394
I0
s((I14
tp2395
(I103
tp2396
tp2397
I1
s((I12
tp2398
(I18
tp2399
tp2400
I1
s((I16
tp2401
(I109
tp2402
tp2403
I2
s((I9
tp2404
(I110
tp2405
tp2406
I1
s((I1
tp2407
(I9
tp2408
tp2409
I2
s((I20
tp2410
(I115
tp2411
tp2412
I2
s((I4
tp2413
(I120
tp2414
tp2415
I2
s((I110
tp2416
(I116
tp2417
tp2418
I2
s((I4
tp2419
(I21
tp2420
tp2421
I2
s((I103
tp2422
(I106
tp2423
tp2424
I1
s((I115
tp2425
(I125
tp2426
tp2427
I1
s((I11
tp2428
(I116
tp2429
tp2430
I0
s((I10
tp2431
(I104
tp2432
tp2433
I1
s((I17
tp2434
(I21
tp2435
tp2436
I1
s((I100
tp2437
(I116
tp2438
tp2439
I2
s((I21
tp2440
(I111
tp2441
tp2442
I2
s((I5
tp2443
(I20
tp2444
tp2445
I2
s((I111
tp2446
(I125
tp2447
tp2448
I2
s((I3
tp2449
(I104
tp2450
tp2451
I0
s((I19
tp2452
(I111
tp2453
tp2454
I0
s((I109
tp2455
(I120
tp2456
tp2457
I1
s((I1
tp2458
(I109
tp2459
tp2460
I2
s((I13
tp2461
(I16
tp2462
tp2463
I1
s((I110
tp2464
(I122
tp2465
tp2466
I1
s((I18
tp2467
(I121
tp2468
tp2469
I1
s((I16
tp2470
(I120
tp2471
tp2472
I1
s((I3
tp2473
(I15
tp2474
tp2475
I2
s((I12
tp2476
(I115
tp2477
tp2478
I0
s((I16
tp2479
(I123
tp2480
tp2481
I2
s((I3
tp2482
(I114
tp2483
tp2484
I2
s((I4
tp2485
(I116
tp2486
tp2487
I2
s((I12
tp2488
(I21
tp2489
tp2490
I1
s((I8
tp2491
(I14
tp2492
tp2493
I2
s((I16
tp2494
(I100
tp2495
tp2496
I1
s((I13
tp2497
(I104
tp2498
tp2499
I1
s((I111
tp2500
(I116
tp2501
tp2502
I2
s((I105
tp2503
(I123
tp2504
tp2505
I2
s((I106
tp2506
(I109
tp2507
tp2508
I2
s((I16
tp2509
(I108
tp2510
tp2511
I2
s((I100
tp2512
(I105
tp2513
tp2514
I2
s((I103
tp2515
(I125
tp2516
tp2517
I2
s((I100
tp2518
(I109
tp2519
tp2520
I2
s((I100
tp2521
(I106
tp2522
tp2523
I1
s((I2
tp2524
(I109
tp2525
tp2526
I2
s((I13
tp2527
(I103
tp2528
tp2529
I1
s((I13
tp2530
(I102
tp2531
tp2532
I1
s((I1
tp2533
(I104
tp2534
tp2535
I2
s((I20
tp2536
(I114
tp2537
tp2538
I1
s((I1
tp2539
(I116
tp2540
tp2541
I2
s((I10
tp2542
(I122
tp2543
tp2544
I2
s((I4
tp2545
(I115
tp2546
tp2547
I2
s((I1
tp2548
(I5
tp2549
tp2550
I2
s((I14
tp2551
(I21
tp2552
tp2553
I1
s((I115
tp2554
(I120
tp2555
tp2556
I1
s((I0
tp2557
(I14
tp2558
tp2559
I2
s((I17
tp2560
(I104
tp2561
tp2562
I1
s((I101
tp2563
(I102
tp2564
tp2565
I2
s((I10
tp2566
(I105
tp2567
tp2568
I1
s((I101
tp2569
(I122
tp2570
tp2571
I2
s((I119
tp2572
(I123
tp2573
tp2574
I2
s((I3
tp2575
(I102
tp2576
tp2577
I1
s((I1
tp2578
(I123
tp2579
tp2580
I2
s((I19
tp2581
(I123
tp2582
tp2583
I2
s((I16
tp2584
(I112
tp2585
tp2586
I0
s((I14
tp2587
(I16
tp2588
tp2589
I1
s((I6
tp2590
(I17
tp2591
tp2592
I1
s((I8
tp2593
(I117
tp2594
tp2595
I2
s((I2
tp2596
(I113
tp2597
tp2598
I1
s((I114
tp2599
(I120
tp2600
tp2601
I1
s((I11
tp2602
(I115
tp2603
tp2604
I0
s((I14
tp2605
(I117
tp2606
tp2607
I0
s((I4
tp2608
(I10
tp2609
tp2610
I2
s((I3
tp2611
(I113
tp2612
tp2613
I1
s((I107
tp2614
(I120
tp2615
tp2616
I1
s((I5
tp2617
(I9
tp2618
tp2619
I2
s((I17
tp2620
(I108
tp2621
tp2622
I2
s((I18
tp2623
(I118
tp2624
tp2625
I2
s((I14
tp2626
(I107
tp2627
tp2628
I1
s((I18
tp2629
(I112
tp2630
tp2631
I1
s((I15
tp2632
(I106
tp2633
tp2634
I1
s((I19
tp2635
(I119
tp2636
tp2637
I1
s((I19
tp2638
(I102
tp2639
tp2640
I1
s((I3
tp2641
(I123
tp2642
tp2643
I2
s((I106
tp2644
(I107
tp2645
tp2646
I2
s((I18
tp2647
(I102
tp2648
tp2649
I1
s((I102
tp2650
(I111
tp2651
tp2652
I2
s((I100
tp2653
(I112
tp2654
tp2655
I2
s((I10
tp2656
(I123
tp2657
tp2658
I2
s((I103
tp2659
(I121
tp2660
tp2661
I2
s((I5
tp2662
(I113
tp2663
tp2664
I1
s((I0
tp2665
(I3
tp2666
tp2667
I2
s((I9
tp2668
(I121
tp2669
tp2670
I1
s((I102
tp2671
(I122
tp2672
tp2673
I2
s((I21
tp2674
(I107
tp2675
tp2676
I2
s((I10
tp2677
(I20
tp2678
tp2679
I2
s((I19
tp2680
(I124
tp2681
tp2682
I2
s((I3
tp2683
(I101
tp2684
tp2685
I1
s((I6
tp2686
(I123
tp2687
tp2688
I1
s((I7
tp2689
(I21
tp2690
tp2691
I1
s((I16
tp2692
(I113
tp2693
tp2694
I1
s((I5
tp2695
(I103
tp2696
tp2697
I2
s((I116
tp2698
(I121
tp2699
tp2700
I1
s((I1
tp2701
(I13
tp2702
tp2703
I2
s((I9
tp2704
(I12
tp2705
tp2706
I2
s((I16
tp2707
(I121
tp2708
tp2709
I2
s((I0
tp2710
(I103
tp2711
tp2712
I2
s((I108
tp2713
(I112
tp2714
tp2715
I1
s((I4
tp2716
(I17
tp2717
tp2718
I2
s((I11
tp2719
(I114
tp2720
tp2721
I1
s((I105
tp2722
(I121
tp2723
tp2724
I2
s((I103
tp2725
(I118
tp2726
tp2727
I2
s((I102
tp2728
(I125
tp2729
tp2730
I2
s((I122
tp2731
(I123
tp2732
tp2733
I1
s((I112
tp2734
(I118
tp2735
tp2736
I2
s((I8
tp2737
(I13
tp2738
tp2739
I2
s((I101
tp2740
(I112
tp2741
tp2742
I2
s((I16
tp2743
(I21
tp2744
tp2745
I1
s((I13
tp2746
(I106
tp2747
tp2748
I1
s((I18
tp2749
(I21
tp2750
tp2751
I1
s((I18
tp2752
(I119
tp2753
tp2754
I1
s((I0
tp2755
(I21
tp2756
tp2757
I2
s((I18
tp2758
(I113
tp2759
tp2760
I1
s((I118
tp2761
(I119
tp2762
tp2763
I1
s((I6
tp2764
(I112
tp2765
tp2766
I1
s((I17
tp2767
(I112
tp2768
tp2769
I1
s((I14
tp2770
(I119
tp2771
tp2772
I1
s((I0
tp2773
(I106
tp2774
tp2775
I2
s((I2
tp2776
(I9
tp2777
tp2778
I2
s((I6
tp2779
(I102
tp2780
tp2781
I1
s((I2
tp2782
(I11
tp2783
tp2784
I2
s((I2
tp2785
(I123
tp2786
tp2787
I2
s((I1
tp2788
(I8
tp2789
tp2790
I2
s((I16
tp2791
(I107
tp2792
tp2793
I1
s((I13
tp2794
(I113
tp2795
tp2796
I1
s((I5
tp2797
(I120
tp2798
tp2799
I1
s((I1
tp2800
(I114
tp2801
tp2802
I2
s((I7
tp2803
(I100
tp2804
tp2805
I1
s((I111
tp2806
(I117
tp2807
tp2808
I2
s((I5
tp2809
(I110
tp2810
tp2811
I2
s((I111
tp2812
(I118
tp2813
tp2814
I2
s((I8
tp2815
(I105
tp2816
tp2817
I1
s((I16
tp2818
(I124
tp2819
tp2820
I2
s((I10
tp2821
(I13
tp2822
tp2823
I2
s((I8
tp2824
(I114
tp2825
tp2826
I1
s((I105
tp2827
(I114
tp2828
tp2829
I2
s((I21
tp2830
(I106
tp2831
tp2832
I1
s((I17
tp2833
(I119
tp2834
tp2835
I1
s((I16
tp2836
(I119
tp2837
tp2838
I1
s((I3
tp2839
(I100
tp2840
tp2841
I1
s((I116
tp2842
(I119
tp2843
tp2844
I1
s((I105
tp2845
(I124
tp2846
tp2847
I2
s((I108
tp2848
(I110
tp2849
tp2850
I1
s((I8
tp2851
(I17
tp2852
tp2853
I1
s((I0
tp2854
(I6
tp2855
tp2856
I2
s((I5
tp2857
(I14
tp2858
tp2859
I2
s((I109
tp2860
(I121
tp2861
tp2862
I1
s((I12
tp2863
(I15
tp2864
tp2865
I1
s((I121
tp2866
(I122
tp2867
tp2868
I2
s((I10
tp2869
(I109
tp2870
tp2871
I2
s((I108
tp2872
(I120
tp2873
tp2874
I1
s((I103
tp2875
(I123
tp2876
tp2877
I2
s((I113
tp2878
(I116
tp2879
tp2880
I2
s((I5
tp2881
(I11
tp2882
tp2883
I2
s((I0
tp2884
(I105
tp2885
tp2886
I2
s((I14
tp2887
(I106
tp2888
tp2889
I1
s((I2
tp2890
(I121
tp2891
tp2892
I2
s((I14
tp2893
(I101
tp2894
tp2895
I1
s((I103
tp2896
(I105
tp2897
tp2898
I1
s((I11
tp2899
(I102
tp2900
tp2901
I1
s((I8
tp2902
(I116
tp2903
tp2904
I2
s((I100
tp2905
(I102
tp2906
tp2907
I2
s((I4
tp2908
(I16
tp2909
tp2910
I2
s((I106
tp2911
(I122
tp2912
tp2913
I2
s((I111
tp2914
(I123
tp2915
tp2916
I1
s((I101
tp2917
(I125
tp2918
tp2919
I2
s((I19
tp2920
(I117
tp2921
tp2922
I2
s((I13
tp2923
(I18
tp2924
tp2925
I1
s((I120
tp2926
(I121
tp2927
tp2928
I2
s((I20
tp2929
(I112
tp2930
tp2931
I1
s((I7
tp2932
(I121
tp2933
tp2934
I1
s((I121
tp2935
(I123
tp2936
tp2937
I2
s((I0
tp2938
(I121
tp2939
tp2940
I2
s((I18
tp2941
(I110
tp2942
tp2943
I2
s((I14
tp2944
(I115
tp2945
tp2946
I0
s((I18
tp2947
(I104
tp2948
tp2949
I1
s((I8
tp2950
(I9
tp2951
tp2952
I0
s((I10
tp2953
(I14
tp2954
tp2955
I2
s((I1
tp2956
(I122
tp2957
tp2958
I2
s((I5
tp2959
(I106
tp2960
tp2961
I1
s((I21
tp2962
(I125
tp2963
tp2964
I2
s((I5
tp2965
(I124
tp2966
tp2967
I2
s((I20
tp2968
(I122
tp2969
tp2970
I2
s((I105
tp2971
(I122
tp2972
tp2973
I2
s((I2
tp2974
(I19
tp2975
tp2976
I2
s((I18
tp2977
(I124
tp2978
tp2979
I0
s((I6
tp2980
(I10
tp2981
tp2982
I1
s((I2
tp2983
(I103
tp2984
tp2985
I2
s((I3
tp2986
(I7
tp2987
tp2988
I2
s((I20
tp2989
(I121
tp2990
tp2991
I1
s((I9
tp2992
(I14
tp2993
tp2994
I2
s((I16
tp2995
(I102
tp2996
tp2997
I1
s((I107
tp2998
(I123
tp2999
tp3000
I2
s((I21
tp3001
(I115
tp3002
tp3003
I2
s((I5
tp3004
(I18
tp3005
tp3006
I2
s((I4
tp3007
(I104
tp3008
tp3009
I1
s((I10
tp3010
(I110
tp3011
tp3012
I2
s((I6
tp3013
(I115
tp3014
tp3015
I2
s((I8
tp3016
(I118
tp3017
tp3018
I2
s((I106
tp3019
(I115
tp3020
tp3021
I2
s((I0
tp3022
(I20
tp3023
tp3024
I2
s((I9
tp3025
(I122
tp3026
tp3027
I1
s((I12
tp3028
(I102
tp3029
tp3030
I1
s((I104
tp3031
(I107
tp3032
tp3033
I2
s((I12
tp3034
(I100
tp3035
tp3036
I1
s((I9
tp3037
(I102
tp3038
tp3039
I1
s((I13
tp3040
(I125
tp3041
tp3042
I1
s((I13
tp3043
(I124
tp3044
tp3045
I1
s((I11
tp3046
(I101
tp3047
tp3048
I1
s((I9
tp3049
(I113
tp3050
tp3051
I1
s((I106
tp3052
(I123
tp3053
tp3054
I2
s((I4
tp3055
(I124
tp3056
tp3057
I2
s((I12
tp3058
(I16
tp3059
tp3060
I1
s((I13
tp3061
(I110
tp3062
tp3063
I1
s((I2
tp3064
(I105
tp3065
tp3066
I0
s((I100
tp3067
(I108
tp3068
tp3069
I2
s((I2
tp3070
(I107
tp3071
tp3072
I2
s((I16
tp3073
(I20
tp3074
tp3075
I2
s((I9
tp3076
(I112
tp3077
tp3078
I1
s((I11
tp3079
(I117
tp3080
tp3081
I0
s((I12
tp3082
(I14
tp3083
tp3084
I0
s((I119
tp3085
(I125
tp3086
tp3087
I2
s((I0
tp3088
(I104
tp3089
tp3090
I2
s((I102
tp3091
(I123
tp3092
tp3093
I2
s((I16
tp3094
(I114
tp3095
tp3096
I2
s((I18
tp3097
(I105
tp3098
tp3099
I1
s((I20
tp3100
(I108
tp3101
tp3102
I2
s((I7
tp3103
(I11
tp3104
tp3105
I2
s((I17
tp3106
(I115
tp3107
tp3108
I2
s((I6
tp3109
(I124
tp3110
tp3111
I1
s((I4
tp3112
(I100
tp3113
tp3114
I1
s((I15
tp3115
(I17
tp3116
tp3117
I2
s((I21
tp3118
(I124
tp3119
tp3120
I2
s((I2
tp3121
(I110
tp3122
tp3123
I2
s((I103
tp3124
(I107
tp3125
tp3126
I2
s((I102
tp3127
(I109
tp3128
tp3129
I2
s((I1
tp3130
(I110
tp3131
tp3132
I2
s((I11
tp3133
(I125
tp3134
tp3135
I1
s((I4
tp3136
(I11
tp3137
tp3138
I2
s((I107
tp3139
(I117
tp3140
tp3141
I2
s((I111
tp3142
(I112
tp3143
tp3144
I1
s((I20
tp3145
(I118
tp3146
tp3147
I2
s((I118
tp3148
(I125
tp3149
tp3150
I1
s((I104
tp3151
(I111
tp3152
tp3153
I2
s((I10
tp3154
(I103
tp3155
tp3156
I1
s((I4
tp3157
(I14
tp3158
tp3159
I2
s((I5
tp3160
(I122
tp3161
tp3162
I2
s((I21
tp3163
(I114
tp3164
tp3165
I2
s((I0
tp3166
(I110
tp3167
tp3168
I2
s((I9
tp3169
(I100
tp3170
tp3171
I1
s((I3
tp3172
(I108
tp3173
tp3174
I2
s((I21
tp3175
(I109
tp3176
tp3177
I2
s((I117
tp3178
(I120
tp3179
tp3180
I1
s((I106
tp3181
(I125
tp3182
tp3183
I2
s((I113
tp3184
(I119
tp3185
tp3186
I2
s((I3
tp3187
(I6
tp3188
tp3189
I2
s((I14
tp3190
(I124
tp3191
tp3192
I1
s((I7
tp3193
(I12
tp3194
tp3195
I2
s((I109
tp3196
(I113
tp3197
tp3198
I1
s((I6
tp3199
(I117
tp3200
tp3201
I2
s((I2
tp3202
(I12
tp3203
tp3204
I2
s((I3
tp3205
(I118
tp3206
tp3207
I2
s((I116
tp3208
(I120
tp3209
tp3210
I1
s((I19
tp3211
(I107
tp3212
tp3213
I1
s((I108
tp3214
(I117
tp3215
tp3216
I2
s((I14
tp3217
(I114
tp3218
tp3219
I1
s((I16
tp3220
(I104
tp3221
tp3222
I1
s((I103
tp3223
(I116
tp3224
tp3225
I2
s((I16
tp3226
(I122
tp3227
tp3228
I2
s((I16
tp3229
(I115
tp3230
tp3231
I2
s((I3
tp3232
(I120
tp3233
tp3234
I1
s((I1
tp3235
(I107
tp3236
tp3237
I2
s((I21
tp3238
(I102
tp3239
tp3240
I1
s((I5
tp3241
(I117
tp3242
tp3243
I2
s((I20
tp3244
(I100
tp3245
tp3246
I1
s((I101
tp3247
(I109
tp3248
tp3249
I2
s((I108
tp3250
(I113
tp3251
tp3252
I1
s((I7
tp3253
(I106
tp3254
tp3255
I1
s((I12
tp3256
(I106
tp3257
tp3258
I1
s((I106
tp3259
(I110
tp3260
tp3261
I2
s((I113
tp3262
(I124
tp3263
tp3264
I2
s((I2
tp3265
(I16
tp3266
tp3267
I2
s((I2
tp3268
(I3
tp3269
tp3270
I2
s((I4
tp3271
(I119
tp3272
tp3273
I2
s((I2
tp3274
(I7
tp3275
tp3276
I2
s((I7
tp3277
(I14
tp3278
tp3279
I2
s((I9
tp3280
(I123
tp3281
tp3282
I1
s((I11
tp3283
(I12
tp3284
tp3285
I0
s((I6
tp3286
(I125
tp3287
tp3288
I2
s((I3
tp3289
(I103
tp3290
tp3291
I2
s((I13
tp3292
(I20
tp3293
tp3294
I1
s((I100
tp3295
(I104
tp3296
tp3297
I2
s((I120
tp3298
(I122
tp3299
tp3300
I2
s((I113
tp3301
(I125
tp3302
tp3303
I2
s((I1
tp3304
(I7
tp3305
tp3306
I2
s((I104
tp3307
(I105
tp3308
tp3309
I1
s((I7
tp3310
(I113
tp3311
tp3312
I1
s((I7
tp3313
(I122
tp3314
tp3315
I1
s((I102
tp3316
(I106
tp3317
tp3318
I1
s((I14
tp3319
(I102
tp3320
tp3321
I1
s((I7
tp3322
(I102
tp3323
tp3324
I1
s((I3
tp3325
(I112
tp3326
tp3327
I2
s((I4
tp3328
(I108
tp3329
tp3330
I2
s((I3
tp3331
(I117
tp3332
tp3333
I2
s((I4
tp3334
(I113
tp3335
tp3336
I1
s((I15
tp3337
(I111
tp3338
tp3339
I2
s((I13
tp3340
(I119
tp3341
tp3342
I1
s((I0
tp3343
(I12
tp3344
tp3345
I2
s((I9
tp3346
(I114
tp3347
tp3348
I1
s((I4
tp3349
(I114
tp3350
tp3351
I2
s((I104
tp3352
(I115
tp3353
tp3354
I2
s((I16
tp3355
(I105
tp3356
tp3357
I1
s((I117
tp3358
(I125
tp3359
tp3360
I1
s((I105
tp3361
(I120
tp3362
tp3363
I0
s((I102
tp3364
(I116
tp3365
tp3366
I2
s((I8
tp3367
(I110
tp3368
tp3369
I1
s((I13
tp3370
(I15
tp3371
tp3372
I1
s((I2
tp3373
(I100
tp3374
tp3375
I1
s((I112
tp3376
(I125
tp3377
tp3378
I2
s((I6
tp3379
(I13
tp3380
tp3381
I2
s((I17
tp3382
(I18
tp3383
tp3384
I1
s.