(dp0
((I1
tp1
(I2
tp2
tp3
I2
s((I1
tp4
(I14
tp5
tp6
I2
s((I1
tp7
(I20
tp8
tp9
I2
s((I116
tp10
(I118
tp11
tp12
I0
s((I7
tp13
(I16
tp14
tp15
I1
s((I0
tp16
(I2
tp17
tp18
I2
s((I109
tp19
(I125
tp20
tp21
I0
s((I102
tp22
(I105
tp23
tp24
I1
s((I107
tp25
(I109
tp26
tp27
I2
s((I108
tp28
(I121
tp29
tp30
I0
s((I6
tp31
(I15
tp32
tp33
I0
s((I106
tp34
(I125
tp35
tp36
I2
s((I12
tp37
(I17
tp38
tp39
I1
s((I103
tp40
(I109
tp41
tp42
I2
s((I14
tp43
(I15
tp44
tp45
I1
s((I0
tp46
(I15
tp47
tp48
I2
s((I16
tp49
(I18
tp50
tp51
I1
s((I10
tp52
(I12
tp53
tp54
I2
s((I3
tp55
(I14
tp56
tp57
I2
s((I113
tp58
(I115
tp59
tp60
I2
s((I0
tp61
(I13
tp62
tp63
I2
s((I101
tp64
(I105
tp65
tp66
I1
s((I109
tp67
(I122
tp68
tp69
I0
s((I101
tp70
(I110
tp71
tp72
I2
s((I9
tp73
(I11
tp74
tp75
I2
s((I111
tp76
(I115
tp77
tp78
I2
s((I6
tp79
(I9
tp80
tp81
I2
s((I105
tp82
(I115
tp83
tp84
I2
s((I106
tp85
(I112
tp86
tp87
I0
s((I101
tp88
(I117
tp89
tp90
I2
s((I117
tp91
(I122
tp92
tp93
I1
s((I115
tp94
(I119
tp95
tp96
I1
s((I4
tp97
(I20
tp98
tp99
I2
s((I109
tp100
(I118
tp101
tp102
I2
s((I120
tp103
(I123
tp104
tp105
I2
s((I105
tp106
(I106
tp107
tp108
I1
s((I105
tp109
(I116
tp110
tp111
I2
s((I103
tp112
(I115
tp113
tp114
I2
s((I3
tp115
(I13
tp116
tp117
I2
s((I104
tp118
(I113
tp119
tp120
I1
s((I102
tp121
(I118
tp122
tp123
I2
s((I107
tp124
(I119
tp125
tp126
I2
s((I7
tp127
(I17
tp128
tp129
I1
s((I117
tp130
(I118
tp131
tp132
I0
s((I104
tp133
(I123
tp134
tp135
I2
s((I108
tp136
(I125
tp137
tp138
I0
s((I2
tp139
(I4
tp140
tp141
I0
s((I9
tp142
(I16
tp143
tp144
I0
s((I2
tp145
(I6
tp146
tp147
I2
s((I5
tp148
(I13
tp149
tp150
I2
s((I121
tp151
(I125
tp152
tp153
I0
s((I106
tp154
(I113
tp155
tp156
I0
s((I15
tp157
(I20
tp158
tp159
I0
s((I100
tp160
(I123
tp161
tp162
I2
s((I114
tp163
(I119
tp164
tp165
I1
s((I105
tp166
(I119
tp167
tp168
I2
s((I6
tp169
(I7
tp170
tp171
I2
s((I102
tp172
(I107
tp173
tp174
I2
s((I110
tp175
(I125
tp176
tp177
I1
s((I3
tp178
(I4
tp179
tp180
I2
s((I109
tp181
(I117
tp182
tp183
I2
s((I11
tp184
(I14
tp185
tp186
I0
s((I2
tp187
(I8
tp188
tp189
I2
s((I2
tp190
(I10
tp191
tp192
I2
s((I12
tp193
(I13
tp194
tp195
I0
s((I3
tp196
(I12
tp197
tp198
I2
s((I105
tp199
(I110
tp200
tp201
I2
s((I111
tp202
(I122
tp203
tp204
I2
s((I114
tp205
(I123
tp206
tp207
I1
s((I6
tp208
(I12
tp209
tp210
I2
s((I105
tp211
(I112
tp212
tp213
I2
s((I0
tp214
(I5
tp215
tp216
I2
s((I105
tp217
(I111
tp218
tp219
I2
s((I124
tp220
(I125
tp221
tp222
I0
s((I118
tp223
(I120
tp224
tp225
I1
s((I5
tp226
(I20
tp227
tp228
I2
s((I110
tp229
(I123
tp230
tp231
I0
s((I15
tp232
(I16
tp233
tp234
I1
s((I109
tp235
(I114
tp236
tp237
I1
s((I115
tp238
(I116
tp239
tp240
I0
s((I1
tp241
(I5
tp242
tp243
I2
s((I5
tp244
(I7
tp245
tp246
I2
s((I101
tp247
(I118
tp248
tp249
I2
s((I115
tp250
(I117
tp251
tp252
I0
s((I115
tp253
(I123
tp254
tp255
I1
s((I20
tp256
(I21
tp257
tp258
I1
s((I110
tp259
(I120
tp260
tp261
I1
s((I0
tp262
(I7
tp263
tp264
I2
s((I11
tp265
(I13
tp266
tp267
I0
s((I109
tp268
(I110
tp269
tp270
I0
s((I0
tp271
(I8
tp272
tp273
I2
s((I2
tp274
(I19
tp275
tp276
I2
s((I5
tp277
(I11
tp278
tp279
I2
s((I7
tp280
(I18
tp281
tp282
I1
s((I1
tp283
(I12
tp284
tp285
I2
s((I107
tp286
(I112
tp287
tp288
I1
s((I102
tp289
(I103
tp290
tp291
I0
s((I9
tp292
(I17
tp293
tp294
I1
s((I3
tp295
(I21
tp296
tp297
I0
s((I4
tp298
(I12
tp299
tp300
I2
s((I102
tp301
(I120
tp302
tp303
I1
s((I108
tp304
(I115
tp305
tp306
I2
s((I106
tp307
(I110
tp308
tp309
I2
s((I9
tp310
(I18
tp311
tp312
I1
s((I113
tp313
(I118
tp314
tp315
I2
s((I110
tp316
(I117
tp317
tp318
I2
s((I5
tp319
(I6
tp320
tp321
I2
s((I8
tp322
(I18
tp323
tp324
I1
s((I5
tp325
(I8
tp326
tp327
I2
s((I12
tp328
(I20
tp329
tp330
I1
s((I110
tp331
(I122
tp332
tp333
I0
s((I104
tp334
(I110
tp335
tp336
I2
s((I100
tp337
(I115
tp338
tp339
I2
s((I103
tp340
(I106
tp341
tp342
I1
s((I104
tp343
(I120
tp344
tp345
I0
s((I111
tp346
(I119
tp347
tp348
I0
s((I0
tp349
(I9
tp350
tp351
I2
s((I101
tp352
(I108
tp353
tp354
I2
s((I120
tp355
(I121
tp356
tp357
I2
s((I8
tp358
(I12
tp359
tp360
I2
s((I3
tp361
(I20
tp362
tp363
I2
s((I12
tp364
(I19
tp365
tp366
I1
s((I15
tp367
(I21
tp368
tp369
I1
s((I114
tp370
(I115
tp371
tp372
I2
s((I103
tp373
(I119
tp374
tp375
I2
s((I106
tp376
(I124
tp377
tp378
I2
s((I107
tp379
(I122
tp380
tp381
I2
s((I118
tp382
(I122
tp383
tp384
I1
s((I19
tp385
(I20
tp386
tp387
I1
s((I115
tp388
(I121
tp389
tp390
I1
s((I7
tp391
(I19
tp392
tp393
I1
s((I113
tp394
(I120
tp395
tp396
I0
s((I100
tp397
(I121
tp398
tp399
I2
s((I8
tp400
(I21
tp401
tp402
I1
s((I114
tp403
(I124
tp404
tp405
I0
s((I105
tp406
(I109
tp407
tp408
I2
s((I115
tp409
(I122
tp410
tp411
I1
s((I16
tp412
(I17
tp413
tp414
I1
s((I103
tp415
(I107
tp416
tp417
I2
s((I118
tp418
(I121
tp419
tp420
I1
s((I9
tp421
(I19
tp422
tp423
I0
s((I109
tp424
(I119
tp425
tp426
I1
s((I108
tp427
(I113
tp428
tp429
I1
s((I100
tp430
(I111
tp431
tp432
I2
s((I107
tp433
(I124
tp434
tp435
I2
s((I122
tp436
(I124
tp437
tp438
I0
s((I4
tp439
(I10
tp440
tp441
I2
s((I1
tp442
(I19
tp443
tp444
I2
s((I106
tp445
(I111
tp446
tp447
I2
s((I0
tp448
(I11
tp449
tp450
I2
s((I110
tp451
(I113
tp452
tp453
I1
s((I104
tp454
(I108
tp455
tp456
I2
s((I108
tp457
(I111
tp458
tp459
I1
s((I2
tp460
(I20
tp461
tp462
I2
s((I115
tp463
(I124
tp464
tp465
I1
s((I104
tp466
(I118
tp467
tp468
I2
s((I109
tp469
(I111
tp470
tp471
I1
s((I8
tp472
(I11
tp473
tp474
I2
s((I106
tp475
(I114
tp476
tp477
I2
s((I0
tp478
(I1
tp479
tp480
I2
s((I101
tp481
(I116
tp482
tp483
I2
s((I7
tp484
(I8
tp485
tp486
I2
s((I123
tp487
(I125
tp488
tp489
I0
s((I123
tp490
(I124
tp491
tp492
I1
s((I112
tp493
(I116
tp494
tp495
I2
s((I101
tp496
(I103
tp497
tp498
I0
s((I105
tp499
(I125
tp500
tp501
I2
s((I112
tp502
(I113
tp503
tp504
I1
s((I103
tp505
(I113
tp506
tp507
I1
s((I7
tp508
(I15
tp509
tp510
I0
s((I17
tp511
(I20
tp512
tp513
I2
s((I108
tp514
(I123
tp515
tp516
I1
s((I121
tp517
(I122
tp518
tp519
I2
s((I107
tp520
(I114
tp521
tp522
I2
s((I109
tp523
(I123
tp524
tp525
I0
s((I4
tp526
(I13
tp527
tp528
I2
s((I102
tp529
(I112
tp530
tp531
I0
s((I106
tp532
(I115
tp533
tp534
I2
s((I114
tp535
(I116
tp536
tp537
I2
s((I6
tp538
(I19
tp539
tp540
I1
s((I1
tp541
(I6
tp542
tp543
I2
s((I19
tp544
(I21
tp545
tp546
I1
s((I3
tp547
(I10
tp548
tp549
I1
s((I113
tp550
(I119
tp551
tp552
I2
s((I6
tp553
(I10
tp554
tp555
I0
s((I11
tp556
(I12
tp557
tp558
I0
s((I100
tp559
(I103
tp560
tp561
I2
s((I110
tp562
(I112
tp563
tp564
I1
s((I107
tp565
(I116
tp566
tp567
I2
s((I102
tp568
(I117
tp569
tp570
I2
s((I106
tp571
(I117
tp572
tp573
I2
s((I114
tp574
(I120
tp575
tp576
I1
s((I10
tp577
(I18
tp578
tp579
I2
s((I17
tp580
(I19
tp581
tp582
I0
s((I9
tp583
(I10
tp584
tp585
I1
s((I104
tp586
(I121
tp587
tp588
I2
s((I104
tp589
(I116
tp590
tp591
I2
s((I101
tp592
(I120
tp593
tp594
I1
s((I111
tp595
(I120
tp596
tp597
I1
s((I7
tp598
(I9
tp599
tp600
I0
s((I5
tp601
(I19
tp602
tp603
I2
s((I108
tp604
(I109
tp605
tp606
I2
s((I2
tp607
(I5
tp608
tp609
I0
s((I106
tp610
(I120
tp611
tp612
I0
s((I101
tp613
(I107
tp614
tp615
I2
s((I18
tp616
(I19
tp617
tp618
I2
s((I113
tp619
(I121
tp620
tp621
I2
s((I112
tp622
(I119
tp623
tp624
I2
s((I104
tp625
(I106
tp626
tp627
I1
s((I3
tp628
(I9
tp629
tp630
I2
s((I103
tp631
(I124
tp632
tp633
I2
s((I100
tp634
(I107
tp635
tp636
I2
s((I101
tp637
(I124
tp638
tp639
I2
s((I1
tp640
(I18
tp641
tp642
I0
s((I3
tp643
(I19
tp644
tp645
I2
s((I101
tp646
(I111
tp647
tp648
I2
s((I0
tp649
(I18
tp650
tp651
I2
s((I16
tp652
(I19
tp653
tp654
I2
s((I10
tp655
(I19
tp656
tp657
I2
s((I119
tp658
(I122
tp659
tp660
I2
s((I106
tp661
(I119
tp662
tp663
I2
s((I111
tp664
(I124
tp665
tp666
I2
s((I112
tp667
(I115
tp668
tp669
I2
s((I102
tp670
(I114
tp671
tp672
I2
s((I0
tp673
(I21
tp674
tp675
I0
s((I110
tp676
(I119
tp677
tp678
I1
s((I13
tp679
(I16
tp680
tp681
I1
s((I8
tp682
(I19
tp683
tp684
I1
s((I109
tp685
(I115
tp686
tp687
I2
s((I5
tp688
(I10
tp689
tp690
I2
s((I2
tp691
(I14
tp692
tp693
I2
s((I1
tp694
(I21
tp695
tp696
I0
s((I3
tp697
(I8
tp698
tp699
I2
s((I1
tp700
(I17
tp701
tp702
I2
s((I4
tp703
(I9
tp704
tp705
I2
s((I102
tp706
(I124
tp707
tp708
I2
s((I100
tp709
(I113
tp710
tp711
I0
s((I103
tp712
(I110
tp713
tp714
I2
s((I18
tp715
(I20
tp716
tp717
I1
s((I103
tp718
(I120
tp719
tp720
I1
s((I3
tp721
(I18
tp722
tp723
I2
s((I112
tp724
(I120
tp725
tp726
I1
s((I102
tp727
(I119
tp728
tp729
I2
s((I6
tp730
(I14
tp731
tp732
I2
s((I0
tp733
(I19
tp734
tp735
I2
s((I9
tp736
(I21
tp737
tp738
I1
s((I2
tp739
(I18
tp740
tp741
I2
s((I110
tp742
(I124
tp743
tp744
I0
s((I4
tp745
(I7
tp746
tp747
I2
s((I107
tp748
(I113
tp749
tp750
I1
s((I7
tp751
(I10
tp752
tp753
I1
s((I107
tp754
(I121
tp755
tp756
I2
s((I10
tp757
(I21
tp758
tp759
I1
s((I100
tp760
(I119
tp761
tp762
I2
s((I103
tp763
(I117
tp764
tp765
I2
s((I6
tp766
(I8
tp767
tp768
I2
s((I13
tp769
(I14
tp770
tp771
I0
s((I104
tp772
(I124
tp773
tp774
I2
s((I12
tp775
(I16
tp776
tp777
I1
s((I110
tp778
(I121
tp779
tp780
I1
s((I118
tp781
(I124
tp782
tp783
I1
s((I107
tp784
(I111
tp785
tp786
I0
s((I101
tp787
(I115
tp788
tp789
I2
s((I104
tp790
(I114
tp791
tp792
I2
s((I3
tp793
(I17
tp794
tp795
I0
s((I12
tp796
(I18
tp797
tp798
I1
s((I114
tp799
(I125
tp800
tp801
I2
s((I17
tp802
(I18
tp803
tp804
I2
s((I105
tp805
(I123
tp806
tp807
I2
s((I0
tp808
(I10
tp809
tp810
I2
s((I1
tp811
(I4
tp812
tp813
I0
s((I110
tp814
(I118
tp815
tp816
I2
s((I113
tp817
(I117
tp818
tp819
I2
s((I111
tp820
(I114
tp821
tp822
I0
s((I108
tp823
(I119
tp824
tp825
I1
s((I105
tp826
(I114
tp827
tp828
I2
s((I14
tp829
(I20
tp830
tp831
I1
s((I112
tp832
(I123
tp833
tp834
I2
s((I100
tp835
(I125
tp836
tp837
I2
s((I100
tp838
(I122
tp839
tp840
I2
s((I4
tp841
(I8
tp842
tp843
I2
s((I107
tp844
(I123
tp845
tp846
I2
s((I16
tp847
(I20
tp848
tp849
I0
s((I110
tp850
(I115
tp851
tp852
I2
s((I10
tp853
(I16
tp854
tp855
I0
s((I108
tp856
(I117
tp857
tp858
I2
s((I113
tp859
(I124
tp860
tp861
I2
s((I119
tp862
(I120
tp863
tp864
I1
s((I100
tp865
(I106
tp866
tp867
I0
s((I111
tp868
(I113
tp869
tp870
I1
s((I6
tp871
(I11
tp872
tp873
I2
s((I116
tp874
(I123
tp875
tp876
I1
s((I102
tp877
(I115
tp878
tp879
I2
s((I13
tp880
(I17
tp881
tp882
I1
s((I9
tp883
(I13
tp884
tp885
I2
s((I110
tp886
(I111
tp887
tp888
I1
s((I109
tp889
(I124
tp890
tp891
I0
s((I121
tp892
(I124
tp893
tp894
I2
s((I117
tp895
(I123
tp896
tp897
I1
s((I116
tp898
(I125
tp899
tp900
I1
s((I1
tp901
(I16
tp902
tp903
I2
s((I107
tp904
(I108
tp905
tp906
I2
s((I108
tp907
(I116
tp908
tp909
I2
s((I105
tp910
(I118
tp911
tp912
I2
s((I4
tp913
(I6
tp914
tp915
I2
s((I8
tp916
(I15
tp917
tp918
I1
s((I112
tp919
(I114
tp920
tp921
I2
s((I10
tp922
(I17
tp923
tp924
I2
s((I119
tp925
(I124
tp926
tp927
I2
s((I104
tp928
(I112
tp929
tp930
I2
s((I117
tp931
(I124
tp932
tp933
I1
s((I0
tp934
(I4
tp935
tp936
I2
s((I3
tp937
(I11
tp938
tp939
I2
s((I2
tp940
(I21
tp941
tp942
I1
s((I117
tp943
(I119
tp944
tp945
I1
s((I101
tp946
(I123
tp947
tp948
I2
s((I103
tp949
(I122
tp950
tp951
I2
s((I104
tp952
(I122
tp953
tp954
I2
s((I103
tp955
(I104
tp956
tp957
I1
s((I7
tp958
(I20
tp959
tp960
I1
s((I14
tp961
(I19
tp962
tp963
I1
s((I119
tp964
(I121
tp965
tp966
I0
s((I11
tp967
(I21
tp968
tp969
I1
s((I11
tp970
(I20
tp971
tp972
I1
s((I102
tp973
(I113
tp974
tp975
I1
s((I100
tp976
(I101
tp977
tp978
I2
s((I122
tp979
(I125
tp980
tp981
I0
s((I110
tp982
(I114
tp983
tp984
I0
s((I100
tp985
(I104
tp986
tp987
I2
s((I114
tp988
(I121
tp989
tp990
I0
s((I102
tp991
(I111
tp992
tp993
I2
s((I100
tp994
(I114
tp995
tp996
I2
s((I15
tp997
(I18
tp998
tp999
I1
s((I1
tp1000
(I15
tp1001
tp1002
I2
s((I13
tp1003
(I21
tp1004
tp1005
I1
s((I1
tp1006
(I11
tp1007
tp1008
I2
s((I104
tp1009
(I109
tp1010
tp1011
I2
s((I107
tp1012
(I115
tp1013
tp1014
I2
s((I107
tp1015
(I118
tp1016
tp1017
I2
s((I104
tp1018
(I119
tp1019
tp1020
I2
s((I102
tp1021
(I108
tp1022
tp1023
I2
s((I13
tp1024
(I19
tp1025
tp1026
I1
s((I101
tp1027
(I106
tp1028
tp1029
I1
s((I4
tp1030
(I19
tp1031
tp1032
I2
s((I112
tp1033
(I117
tp1034
tp1035
I2
s((I6
tp1036
(I20
tp1037
tp1038
I1
s((I111
tp1039
(I121
tp1040
tp1041
I0
s((I100
tp1042
(I105
tp1043
tp1044
I0
s((I100
tp1045
(I118
tp1046
tp1047
I2
s((I105
tp1048
(I113
tp1049
tp1050
I0
s((I115
tp1051
(I118
tp1052
tp1053
I0
s((I101
tp1054
(I113
tp1055
tp1056
I1
s((I10
tp1057
(I11
tp1058
tp1059
I2
s((I109
tp1060
(I116
tp1061
tp1062
I2
s((I120
tp1063
(I124
tp1064
tp1065
I2
s((I120
tp1066
(I125
tp1067
tp1068
I2
s((I11
tp1069
(I19
tp1070
tp1071
I1
s((I0
tp1072
(I16
tp1073
tp1074
I2
s((I1
tp1075
(I3
tp1076
tp1077
I2
s((I106
tp1078
(I116
tp1079
tp1080
I2
s((I14
tp1081
(I18
tp1082
tp1083
I1
s((I8
tp1084
(I16
tp1085
tp1086
I1
s((I5
tp1087
(I12
tp1088
tp1089
I2
s((I9
tp1090
(I20
tp1091
tp1092
I0
s((I5
tp1093
(I9
tp1094
tp1095
I2
s((I106
tp1096
(I107
tp1097
tp1098
I2
s((I100
tp1099
(I124
tp1100
tp1101
I2
s((I103
tp1102
(I108
tp1103
tp1104
I2
s((I114
tp1105
(I117
tp1106
tp1107
I2
s((I105
tp1108
(I107
tp1109
tp1110
I2
s((I105
tp1111
(I117
tp1112
tp1113
I2
s((I111
tp1114
(I117
tp1115
tp1116
I2
s((I113
tp1117
(I114
tp1118
tp1119
I2
s((I11
tp1120
(I18
tp1121
tp1122
I1
s((I0
tp1123
(I17
tp1124
tp1125
I2
s((I117
tp1126
(I121
tp1127
tp1128
I1
s((I3
tp1129
(I7
tp1130
tp1131
I2
s((I102
tp1132
(I121
tp1133
tp1134
I1
s((I113
tp1135
(I125
tp1136
tp1137
I2
s((I105
tp1138
(I108
tp1139
tp1140
I2
s((I108
tp1141
(I124
tp1142
tp1143
I0
s((I100
tp1144
(I117
tp1145
tp1146
I2
s((I4
tp1147
(I18
tp1148
tp1149
I0
s((I104
tp1150
(I117
tp1151
tp1152
I2
s((I102
tp1153
(I110
tp1154
tp1155
I2
s((I11
tp1156
(I15
tp1157
tp1158
I1
s((I107
tp1159
(I110
tp1160
tp1161
I2
s((I113
tp1162
(I123
tp1163
tp1164
I2
s((I5
tp1165
(I16
tp1166
tp1167
I2
s((I109
tp1168
(I112
tp1169
tp1170
I1
s((I113
tp1171
(I122
tp1172
tp1173
I2
s((I2
tp1174
(I13
tp1175
tp1176
I2
s((I2
tp1177
(I15
tp1178
tp1179
I2
s((I8
tp1180
(I10
tp1181
tp1182
I1
s((I116
tp1183
(I124
tp1184
tp1185
I1
s((I101
tp1186
(I114
tp1187
tp1188
I2
s((I5
tp1189
(I21
tp1190
tp1191
I0
s((I103
tp1192
(I114
tp1193
tp1194
I2
s((I100
tp1195
(I110
tp1196
tp1197
I2
s((I9
tp1198
(I15
tp1199
tp1200
I0
s((I111
tp1201
(I123
tp1202
tp1203
I0
s((I1
tp1204
(I10
tp1205
tp1206
I2
s((I17
tp1207
(I21
tp1208
tp1209
I1
s((I8
tp1210
(I20
tp1211
tp1212
I1
s((I10
tp1213
(I15
tp1214
tp1215
I2
s((I2
tp1216
(I17
tp1217
tp1218
I0
s((I14
tp1219
(I17
tp1220
tp1221
I1
s((I116
tp1222
(I117
tp1223
tp1224
I0
s((I103
tp1225
(I111
tp1226
tp1227
I2
s((I112
tp1228
(I121
tp1229
tp1230
I2
s((I6
tp1231
(I18
tp1232
tp1233
I1
s((I15
tp1234
(I19
tp1235
tp1236
I1
s((I1
tp1237
(I9
tp1238
tp1239
I2
s((I5
tp1240
(I15
tp1241
tp1242
I2
s((I4
tp1243
(I21
tp1244
tp1245
I1
s((I115
tp1246
(I125
tp1247
tp1248
I1
s((I100
tp1249
(I116
tp1250
tp1251
I2
s((I111
tp1252
(I125
tp1253
tp1254
I0
s((I109
tp1255
(I120
tp1256
tp1257
I1
s((I101
tp1258
(I104
tp1259
tp1260
I1
s((I108
tp1261
(I114
tp1262
tp1263
I1
s((I3
tp1264
(I15
tp1265
tp1266
I2
s((I12
tp1267
(I21
tp1268
tp1269
I1
s((I8
tp1270
(I14
tp1271
tp1272
I2
s((I107
tp1273
(I125
tp1274
tp1275
I2
s((I102
tp1276
(I125
tp1277
tp1278
I2
s((I111
tp1279
(I116
tp1280
tp1281
I2
s((I6
tp1282
(I16
tp1283
tp1284
I1
s((I106
tp1285
(I109
tp1286
tp1287
I2
s((I103
tp1288
(I125
tp1289
tp1290
I2
s((I100
tp1291
(I109
tp1292
tp1293
I2
s((I7
tp1294
(I11
tp1295
tp1296
I2
s((I106
tp1297
(I118
tp1298
tp1299
I2
s((I104
tp1300
(I125
tp1301
tp1302
I2
s((I5
tp1303
(I17
tp1304
tp1305
I2
s((I14
tp1306
(I21
tp1307
tp1308
I1
s((I115
tp1309
(I120
tp1310
tp1311
I1
s((I0
tp1312
(I14
tp1313
tp1314
I2
s((I101
tp1315
(I102
tp1316
tp1317
I2
s((I101
tp1318
(I122
tp1319
tp1320
I2
s((I119
tp1321
(I123
tp1322
tp1323
I2
s((I14
tp1324
(I16
tp1325
tp1326
I1
s((I106
tp1327
(I121
tp1328
tp1329
I2
s((I112
tp1330
(I124
tp1331
tp1332
I2
s((I107
tp1333
(I120
tp1334
tp1335
I1
s((I118
tp1336
(I125
tp1337
tp1338
I1
s((I110
tp1339
(I116
tp1340
tp1341
I2
s((I100
tp1342
(I112
tp1343
tp1344
I2
s((I103
tp1345
(I121
tp1346
tp1347
I2
s((I0
tp1348
(I3
tp1349
tp1350
I2
s((I102
tp1351
(I122
tp1352
tp1353
I2
s((I10
tp1354
(I20
tp1355
tp1356
I0
s((I16
tp1357
(I21
tp1358
tp1359
I1
s((I7
tp1360
(I21
tp1361
tp1362
I1
s((I2
tp1363
(I7
tp1364
tp1365
I2
s((I1
tp1366
(I13
tp1367
tp1368
I2
s((I9
tp1369
(I12
tp1370
tp1371
I2
s((I13
tp1372
(I18
tp1373
tp1374
I1
s((I108
tp1375
(I112
tp1376
tp1377
I1
s((I4
tp1378
(I17
tp1379
tp1380
I0
s((I105
tp1381
(I121
tp1382
tp1383
I2
s((I103
tp1384
(I118
tp1385
tp1386
I2
s((I122
tp1387
(I123
tp1388
tp1389
I0
s((I112
tp1390
(I118
tp1391
tp1392
I2
s((I8
tp1393
(I13
tp1394
tp1395
I2
s((I101
tp1396
(I112
tp1397
tp1398
I2
s((I7
tp1399
(I12
tp1400
tp1401
I2
s((I18
tp1402
(I21
tp1403
tp1404
I1
s((I118
tp1405
(I119
tp1406
tp1407
I1
s((I120
tp1408
(I122
tp1409
tp1410
I2
s((I2
tp1411
(I9
tp1412
tp1413
I2
s((I11
tp1414
(I17
tp1415
tp1416
I1
s((I2
tp1417
(I11
tp1418
tp1419
I2
s((I1
tp1420
(I8
tp1421
tp1422
I2
s((I13
tp1423
(I15
tp1424
tp1425
I1
s((I4
tp1426
(I15
tp1427
tp1428
I2
s((I111
tp1429
(I118
tp1430
tp1431
I2
s((I10
tp1432
(I13
tp1433
tp1434
I2
s((I101
tp1435
(I125
tp1436
tp1437
I2
s((I116
tp1438
(I119
tp1439
tp1440
I1
s((I105
tp1441
(I124
tp1442
tp1443
I2
s((I108
tp1444
(I110
tp1445
tp1446
I0
s((I8
tp1447
(I17
tp1448
tp1449
I1
s((I0
tp1450
(I6
tp1451
tp1452
I2
s((I5
tp1453
(I14
tp1454
tp1455
I2
s((I109
tp1456
(I121
tp1457
tp1458
I1
s((I12
tp1459
(I15
tp1460
tp1461
I1
s((I103
tp1462
(I123
tp1463
tp1464
I2
s((I113
tp1465
(I116
tp1466
tp1467
I2
s((I116
tp1468
(I121
tp1469
tp1470
I1
s((I3
tp1471
(I5
tp1472
tp1473
I0
s((I6
tp1474
(I17
tp1475
tp1476
I1
s((I114
tp1477
(I118
tp1478
tp1479
I2
s((I100
tp1480
(I102
tp1481
tp1482
I2
s((I6
tp1483
(I21
tp1484
tp1485
I1
s((I106
tp1486
(I122
tp1487
tp1488
I2
s((I11
tp1489
(I16
tp1490
tp1491
I1
s((I108
tp1492
(I122
tp1493
tp1494
I0
s((I121
tp1495
(I123
tp1496
tp1497
I0
s((I101
tp1498
(I121
tp1499
tp1500
I2
s((I8
tp1501
(I9
tp1502
tp1503
I0
s((I10
tp1504
(I14
tp1505
tp1506
I2
s((I105
tp1507
(I122
tp1508
tp1509
I0
s((I114
tp1510
(I122
tp1511
tp1512
I2
s((I4
tp1513
(I16
tp1514
tp1515
I0
s((I9
tp1516
(I14
tp1517
tp1518
I2
s((I116
tp1519
(I122
tp1520
tp1521
I1
s((I5
tp1522
(I18
tp1523
tp1524
I2
s((I7
tp1525
(I13
tp1526
tp1527
I2
s((I0
tp1528
(I20
tp1529
tp1530
I2
s((I104
tp1531
(I107
tp1532
tp1533
I2
s((I4
tp1534
(I5
tp1535
tp1536
I0
s((I102
tp1537
(I104
tp1538
tp1539
I1
s((I101
tp1540
(I119
tp1541
tp1542
I2
s((I106
tp1543
(I123
tp1544
tp1545
I2
s((I15
tp1546
(I17
tp1547
tp1548
I1
s((I103
tp1549
(I112
tp1550
tp1551
I0
s((I100
tp1552
(I108
tp1553
tp1554
I2
s((I100
tp1555
(I120
tp1556
tp1557
I0
s((I12
tp1558
(I14
tp1559
tp1560
I0
s((I119
tp1561
(I125
tp1562
tp1563
I2
s((I102
tp1564
(I123
tp1565
tp1566
I2
s((I102
tp1567
(I109
tp1568
tp1569
I2
s((I4
tp1570
(I11
tp1571
tp1572
I2
s((I107
tp1573
(I117
tp1574
tp1575
I2
s((I111
tp1576
(I112
tp1577
tp1578
I1
s((I104
tp1579
(I111
tp1580
tp1581
I2
s((I4
tp1582
(I14
tp1583
tp1584
I2
s((I106
tp1585
(I108
tp1586
tp1587
I2
s((I112
tp1588
(I122
tp1589
tp1590
I2
s((I117
tp1591
(I120
tp1592
tp1593
I1
s((I3
tp1594
(I6
tp1595
tp1596
I2
s((I109
tp1597
(I113
tp1598
tp1599
I1
s((I2
tp1600
(I12
tp1601
tp1602
I2
s((I116
tp1603
(I120
tp1604
tp1605
I1
s((I3
tp1606
(I16
tp1607
tp1608
I1
s((I103
tp1609
(I116
tp1610
tp1611
I2
s((I6
tp1612
(I13
tp1613
tp1614
I2
s((I101
tp1615
(I109
tp1616
tp1617
I2
s((I108
tp1618
(I120
tp1619
tp1620
I1
s((I2
tp1621
(I16
tp1622
tp1623
I2
s((I2
tp1624
(I3
tp1625
tp1626
I2
s((I7
tp1627
(I14
tp1628
tp1629
I2
s((I118
tp1630
(I123
tp1631
tp1632
I1
s((I103
tp1633
(I105
tp1634
tp1635
I1
s((I1
tp1636
(I7
tp1637
tp1638
I2
s((I104
tp1639
(I105
tp1640
tp1641
I1
s((I102
tp1642
(I106
tp1643
tp1644
I1
s((I13
tp1645
(I20
tp1646
tp1647
I1
s((I108
tp1648
(I118
tp1649
tp1650
I2
s((I0
tp1651
(I12
tp1652
tp1653
I2
s((I104
tp1654
(I115
tp1655
tp1656
I2
s((I117
tp1657
(I125
tp1658
tp1659
I1
s((I105
tp1660
(I120
tp1661
tp1662
I0
s((I102
tp1663
(I116
tp1664
tp1665
I2
s((I112
tp1666
(I125
tp1667
tp1668
I2
s.